/*
 * Copyright 2019-2020 Yury Gribov
 *
 * The MIT License (MIT)
 *
 * Use of this source code is governed by MIT license that can be
 * found in the LICENSE.txt file.
 */

  .data

  .globl _libfmod_so_tramp_table
  .hidden _libfmod_so_tramp_table
  .align 4
_libfmod_so_tramp_table:
  .zero 4364

  .text

  .globl _libfmod_so_tramp_resolve
  .hidden _libfmod_so_tramp_resolve

  .globl _libfmod_so_save_regs_and_resolve
  .hidden _libfmod_so_save_regs_and_resolve
  .type _libfmod_so_save_regs_and_resolve, %function
_libfmod_so_save_regs_and_resolve:
  .cfi_startproc

#define PUSH_REG(reg) pushl %reg ; .cfi_adjust_cfa_offset 4; .cfi_rel_offset reg, 0
#define POP_REG(reg) popl %reg ; .cfi_adjust_cfa_offset -4; .cfi_restore reg

  // Slow path which calls dlsym, taken only on first call.
  // All registers are stored to handle arbitrary calling conventions
  // (except XMM/x87 regs in hope they are not used in resolving code).
  // For Dwarf directives, read https://www.imperialviolet.org/2017/01/18/cfi.html.

  .cfi_def_cfa_offset 4  // Return address

  PUSH_REG(eax)
  PUSH_REG(ebx)
  PUSH_REG(ecx)
  PUSH_REG(edx)  // 16

  PUSH_REG(ebp)
  PUSH_REG(edi)
  PUSH_REG(esi)
  pushfl; .cfi_adjust_cfa_offset 4  // 16

  subl $8, %esp
  .cfi_adjust_cfa_offset 8
  PUSH_REG(eax)

  call _libfmod_so_tramp_resolve@PLT  // Stack will be aligned at 16 in call

  addl $12, %esp
  .cfi_adjust_cfa_offset -12

  popfl; .cfi_adjust_cfa_offset -4
  POP_REG(esi)
  POP_REG(edi)
  POP_REG(ebp)

  POP_REG(edx)
  POP_REG(ecx)
  POP_REG(ebx)
  POP_REG(eax)

  ret

  .cfi_endproc

  .section .text.__implib.x86.get_pc_thunk.ax,"axG",@progbits,__implib.x86.get_pc_thunk.ax,comdat
  .globl __implib.x86.get_pc_thunk.ax
  .hidden __implib.x86.get_pc_thunk.ax
  .type __implib.x86.get_pc_thunk.ax, %function
__implib.x86.get_pc_thunk.ax:
  .cfi_startproc
  movl (%esp), %eax
  ret
  .cfi_endproc

/*
 * Copyright 2019-2021 Yury Gribov
 *
 * The MIT License (MIT)
 *
 * Use of this source code is governed by MIT license that can be
 * found in the LICENSE.txt file.
 */

  .globl FMOD5_ChannelGroup_AddDSP
  .p2align 4
  .type FMOD5_ChannelGroup_AddDSP, %function
#ifndef IMPLIB_EXPORT_SHIMS
  .hidden FMOD5_ChannelGroup_AddDSP
#endif
FMOD5_ChannelGroup_AddDSP:
  .cfi_startproc
  .cfi_def_cfa_offset 4  // Return address
  // add $0, %rsp  Why GDB fails to step over call without this?!
  // x86 has no support for PC-relative addressing so code is not very efficient.
  // We also trash EAX here (it's call-clobbered in cdecl).
  call __implib.x86.get_pc_thunk.ax
  addl $_GLOBAL_OFFSET_TABLE_, %eax
  movl 0+_libfmod_so_tramp_table@GOTOFF(%eax), %eax
  cmp $0, %eax
  je 2f
1:
  jmp *%eax
2:
  mov $0, %eax
  call _libfmod_so_save_regs_and_resolve
  jmp FMOD5_ChannelGroup_AddDSP
  .cfi_endproc
/*
 * Copyright 2019-2021 Yury Gribov
 *
 * The MIT License (MIT)
 *
 * Use of this source code is governed by MIT license that can be
 * found in the LICENSE.txt file.
 */

  .globl FMOD5_ChannelGroup_AddFadePoint
  .p2align 4
  .type FMOD5_ChannelGroup_AddFadePoint, %function
#ifndef IMPLIB_EXPORT_SHIMS
  .hidden FMOD5_ChannelGroup_AddFadePoint
#endif
FMOD5_ChannelGroup_AddFadePoint:
  .cfi_startproc
  .cfi_def_cfa_offset 4  // Return address
  // add $0, %rsp  Why GDB fails to step over call without this?!
  // x86 has no support for PC-relative addressing so code is not very efficient.
  // We also trash EAX here (it's call-clobbered in cdecl).
  call __implib.x86.get_pc_thunk.ax
  addl $_GLOBAL_OFFSET_TABLE_, %eax
  movl 4+_libfmod_so_tramp_table@GOTOFF(%eax), %eax
  cmp $0, %eax
  je 2f
1:
  jmp *%eax
2:
  mov $1, %eax
  call _libfmod_so_save_regs_and_resolve
  jmp FMOD5_ChannelGroup_AddFadePoint
  .cfi_endproc
/*
 * Copyright 2019-2021 Yury Gribov
 *
 * The MIT License (MIT)
 *
 * Use of this source code is governed by MIT license that can be
 * found in the LICENSE.txt file.
 */

  .globl FMOD5_ChannelGroup_AddGroup
  .p2align 4
  .type FMOD5_ChannelGroup_AddGroup, %function
#ifndef IMPLIB_EXPORT_SHIMS
  .hidden FMOD5_ChannelGroup_AddGroup
#endif
FMOD5_ChannelGroup_AddGroup:
  .cfi_startproc
  .cfi_def_cfa_offset 4  // Return address
  // add $0, %rsp  Why GDB fails to step over call without this?!
  // x86 has no support for PC-relative addressing so code is not very efficient.
  // We also trash EAX here (it's call-clobbered in cdecl).
  call __implib.x86.get_pc_thunk.ax
  addl $_GLOBAL_OFFSET_TABLE_, %eax
  movl 8+_libfmod_so_tramp_table@GOTOFF(%eax), %eax
  cmp $0, %eax
  je 2f
1:
  jmp *%eax
2:
  mov $2, %eax
  call _libfmod_so_save_regs_and_resolve
  jmp FMOD5_ChannelGroup_AddGroup
  .cfi_endproc
/*
 * Copyright 2019-2021 Yury Gribov
 *
 * The MIT License (MIT)
 *
 * Use of this source code is governed by MIT license that can be
 * found in the LICENSE.txt file.
 */

  .globl FMOD5_ChannelGroup_Get3DAttributes
  .p2align 4
  .type FMOD5_ChannelGroup_Get3DAttributes, %function
#ifndef IMPLIB_EXPORT_SHIMS
  .hidden FMOD5_ChannelGroup_Get3DAttributes
#endif
FMOD5_ChannelGroup_Get3DAttributes:
  .cfi_startproc
  .cfi_def_cfa_offset 4  // Return address
  // add $0, %rsp  Why GDB fails to step over call without this?!
  // x86 has no support for PC-relative addressing so code is not very efficient.
  // We also trash EAX here (it's call-clobbered in cdecl).
  call __implib.x86.get_pc_thunk.ax
  addl $_GLOBAL_OFFSET_TABLE_, %eax
  movl 12+_libfmod_so_tramp_table@GOTOFF(%eax), %eax
  cmp $0, %eax
  je 2f
1:
  jmp *%eax
2:
  mov $3, %eax
  call _libfmod_so_save_regs_and_resolve
  jmp FMOD5_ChannelGroup_Get3DAttributes
  .cfi_endproc
/*
 * Copyright 2019-2021 Yury Gribov
 *
 * The MIT License (MIT)
 *
 * Use of this source code is governed by MIT license that can be
 * found in the LICENSE.txt file.
 */

  .globl FMOD5_ChannelGroup_Get3DConeOrientation
  .p2align 4
  .type FMOD5_ChannelGroup_Get3DConeOrientation, %function
#ifndef IMPLIB_EXPORT_SHIMS
  .hidden FMOD5_ChannelGroup_Get3DConeOrientation
#endif
FMOD5_ChannelGroup_Get3DConeOrientation:
  .cfi_startproc
  .cfi_def_cfa_offset 4  // Return address
  // add $0, %rsp  Why GDB fails to step over call without this?!
  // x86 has no support for PC-relative addressing so code is not very efficient.
  // We also trash EAX here (it's call-clobbered in cdecl).
  call __implib.x86.get_pc_thunk.ax
  addl $_GLOBAL_OFFSET_TABLE_, %eax
  movl 16+_libfmod_so_tramp_table@GOTOFF(%eax), %eax
  cmp $0, %eax
  je 2f
1:
  jmp *%eax
2:
  mov $4, %eax
  call _libfmod_so_save_regs_and_resolve
  jmp FMOD5_ChannelGroup_Get3DConeOrientation
  .cfi_endproc
/*
 * Copyright 2019-2021 Yury Gribov
 *
 * The MIT License (MIT)
 *
 * Use of this source code is governed by MIT license that can be
 * found in the LICENSE.txt file.
 */

  .globl FMOD5_ChannelGroup_Get3DConeSettings
  .p2align 4
  .type FMOD5_ChannelGroup_Get3DConeSettings, %function
#ifndef IMPLIB_EXPORT_SHIMS
  .hidden FMOD5_ChannelGroup_Get3DConeSettings
#endif
FMOD5_ChannelGroup_Get3DConeSettings:
  .cfi_startproc
  .cfi_def_cfa_offset 4  // Return address
  // add $0, %rsp  Why GDB fails to step over call without this?!
  // x86 has no support for PC-relative addressing so code is not very efficient.
  // We also trash EAX here (it's call-clobbered in cdecl).
  call __implib.x86.get_pc_thunk.ax
  addl $_GLOBAL_OFFSET_TABLE_, %eax
  movl 20+_libfmod_so_tramp_table@GOTOFF(%eax), %eax
  cmp $0, %eax
  je 2f
1:
  jmp *%eax
2:
  mov $5, %eax
  call _libfmod_so_save_regs_and_resolve
  jmp FMOD5_ChannelGroup_Get3DConeSettings
  .cfi_endproc
/*
 * Copyright 2019-2021 Yury Gribov
 *
 * The MIT License (MIT)
 *
 * Use of this source code is governed by MIT license that can be
 * found in the LICENSE.txt file.
 */

  .globl FMOD5_ChannelGroup_Get3DCustomRolloff
  .p2align 4
  .type FMOD5_ChannelGroup_Get3DCustomRolloff, %function
#ifndef IMPLIB_EXPORT_SHIMS
  .hidden FMOD5_ChannelGroup_Get3DCustomRolloff
#endif
FMOD5_ChannelGroup_Get3DCustomRolloff:
  .cfi_startproc
  .cfi_def_cfa_offset 4  // Return address
  // add $0, %rsp  Why GDB fails to step over call without this?!
  // x86 has no support for PC-relative addressing so code is not very efficient.
  // We also trash EAX here (it's call-clobbered in cdecl).
  call __implib.x86.get_pc_thunk.ax
  addl $_GLOBAL_OFFSET_TABLE_, %eax
  movl 24+_libfmod_so_tramp_table@GOTOFF(%eax), %eax
  cmp $0, %eax
  je 2f
1:
  jmp *%eax
2:
  mov $6, %eax
  call _libfmod_so_save_regs_and_resolve
  jmp FMOD5_ChannelGroup_Get3DCustomRolloff
  .cfi_endproc
/*
 * Copyright 2019-2021 Yury Gribov
 *
 * The MIT License (MIT)
 *
 * Use of this source code is governed by MIT license that can be
 * found in the LICENSE.txt file.
 */

  .globl FMOD5_ChannelGroup_Get3DDistanceFilter
  .p2align 4
  .type FMOD5_ChannelGroup_Get3DDistanceFilter, %function
#ifndef IMPLIB_EXPORT_SHIMS
  .hidden FMOD5_ChannelGroup_Get3DDistanceFilter
#endif
FMOD5_ChannelGroup_Get3DDistanceFilter:
  .cfi_startproc
  .cfi_def_cfa_offset 4  // Return address
  // add $0, %rsp  Why GDB fails to step over call without this?!
  // x86 has no support for PC-relative addressing so code is not very efficient.
  // We also trash EAX here (it's call-clobbered in cdecl).
  call __implib.x86.get_pc_thunk.ax
  addl $_GLOBAL_OFFSET_TABLE_, %eax
  movl 28+_libfmod_so_tramp_table@GOTOFF(%eax), %eax
  cmp $0, %eax
  je 2f
1:
  jmp *%eax
2:
  mov $7, %eax
  call _libfmod_so_save_regs_and_resolve
  jmp FMOD5_ChannelGroup_Get3DDistanceFilter
  .cfi_endproc
/*
 * Copyright 2019-2021 Yury Gribov
 *
 * The MIT License (MIT)
 *
 * Use of this source code is governed by MIT license that can be
 * found in the LICENSE.txt file.
 */

  .globl FMOD5_ChannelGroup_Get3DDopplerLevel
  .p2align 4
  .type FMOD5_ChannelGroup_Get3DDopplerLevel, %function
#ifndef IMPLIB_EXPORT_SHIMS
  .hidden FMOD5_ChannelGroup_Get3DDopplerLevel
#endif
FMOD5_ChannelGroup_Get3DDopplerLevel:
  .cfi_startproc
  .cfi_def_cfa_offset 4  // Return address
  // add $0, %rsp  Why GDB fails to step over call without this?!
  // x86 has no support for PC-relative addressing so code is not very efficient.
  // We also trash EAX here (it's call-clobbered in cdecl).
  call __implib.x86.get_pc_thunk.ax
  addl $_GLOBAL_OFFSET_TABLE_, %eax
  movl 32+_libfmod_so_tramp_table@GOTOFF(%eax), %eax
  cmp $0, %eax
  je 2f
1:
  jmp *%eax
2:
  mov $8, %eax
  call _libfmod_so_save_regs_and_resolve
  jmp FMOD5_ChannelGroup_Get3DDopplerLevel
  .cfi_endproc
/*
 * Copyright 2019-2021 Yury Gribov
 *
 * The MIT License (MIT)
 *
 * Use of this source code is governed by MIT license that can be
 * found in the LICENSE.txt file.
 */

  .globl FMOD5_ChannelGroup_Get3DLevel
  .p2align 4
  .type FMOD5_ChannelGroup_Get3DLevel, %function
#ifndef IMPLIB_EXPORT_SHIMS
  .hidden FMOD5_ChannelGroup_Get3DLevel
#endif
FMOD5_ChannelGroup_Get3DLevel:
  .cfi_startproc
  .cfi_def_cfa_offset 4  // Return address
  // add $0, %rsp  Why GDB fails to step over call without this?!
  // x86 has no support for PC-relative addressing so code is not very efficient.
  // We also trash EAX here (it's call-clobbered in cdecl).
  call __implib.x86.get_pc_thunk.ax
  addl $_GLOBAL_OFFSET_TABLE_, %eax
  movl 36+_libfmod_so_tramp_table@GOTOFF(%eax), %eax
  cmp $0, %eax
  je 2f
1:
  jmp *%eax
2:
  mov $9, %eax
  call _libfmod_so_save_regs_and_resolve
  jmp FMOD5_ChannelGroup_Get3DLevel
  .cfi_endproc
/*
 * Copyright 2019-2021 Yury Gribov
 *
 * The MIT License (MIT)
 *
 * Use of this source code is governed by MIT license that can be
 * found in the LICENSE.txt file.
 */

  .globl FMOD5_ChannelGroup_Get3DMinMaxDistance
  .p2align 4
  .type FMOD5_ChannelGroup_Get3DMinMaxDistance, %function
#ifndef IMPLIB_EXPORT_SHIMS
  .hidden FMOD5_ChannelGroup_Get3DMinMaxDistance
#endif
FMOD5_ChannelGroup_Get3DMinMaxDistance:
  .cfi_startproc
  .cfi_def_cfa_offset 4  // Return address
  // add $0, %rsp  Why GDB fails to step over call without this?!
  // x86 has no support for PC-relative addressing so code is not very efficient.
  // We also trash EAX here (it's call-clobbered in cdecl).
  call __implib.x86.get_pc_thunk.ax
  addl $_GLOBAL_OFFSET_TABLE_, %eax
  movl 40+_libfmod_so_tramp_table@GOTOFF(%eax), %eax
  cmp $0, %eax
  je 2f
1:
  jmp *%eax
2:
  mov $10, %eax
  call _libfmod_so_save_regs_and_resolve
  jmp FMOD5_ChannelGroup_Get3DMinMaxDistance
  .cfi_endproc
/*
 * Copyright 2019-2021 Yury Gribov
 *
 * The MIT License (MIT)
 *
 * Use of this source code is governed by MIT license that can be
 * found in the LICENSE.txt file.
 */

  .globl FMOD5_ChannelGroup_Get3DOcclusion
  .p2align 4
  .type FMOD5_ChannelGroup_Get3DOcclusion, %function
#ifndef IMPLIB_EXPORT_SHIMS
  .hidden FMOD5_ChannelGroup_Get3DOcclusion
#endif
FMOD5_ChannelGroup_Get3DOcclusion:
  .cfi_startproc
  .cfi_def_cfa_offset 4  // Return address
  // add $0, %rsp  Why GDB fails to step over call without this?!
  // x86 has no support for PC-relative addressing so code is not very efficient.
  // We also trash EAX here (it's call-clobbered in cdecl).
  call __implib.x86.get_pc_thunk.ax
  addl $_GLOBAL_OFFSET_TABLE_, %eax
  movl 44+_libfmod_so_tramp_table@GOTOFF(%eax), %eax
  cmp $0, %eax
  je 2f
1:
  jmp *%eax
2:
  mov $11, %eax
  call _libfmod_so_save_regs_and_resolve
  jmp FMOD5_ChannelGroup_Get3DOcclusion
  .cfi_endproc
/*
 * Copyright 2019-2021 Yury Gribov
 *
 * The MIT License (MIT)
 *
 * Use of this source code is governed by MIT license that can be
 * found in the LICENSE.txt file.
 */

  .globl FMOD5_ChannelGroup_Get3DSpread
  .p2align 4
  .type FMOD5_ChannelGroup_Get3DSpread, %function
#ifndef IMPLIB_EXPORT_SHIMS
  .hidden FMOD5_ChannelGroup_Get3DSpread
#endif
FMOD5_ChannelGroup_Get3DSpread:
  .cfi_startproc
  .cfi_def_cfa_offset 4  // Return address
  // add $0, %rsp  Why GDB fails to step over call without this?!
  // x86 has no support for PC-relative addressing so code is not very efficient.
  // We also trash EAX here (it's call-clobbered in cdecl).
  call __implib.x86.get_pc_thunk.ax
  addl $_GLOBAL_OFFSET_TABLE_, %eax
  movl 48+_libfmod_so_tramp_table@GOTOFF(%eax), %eax
  cmp $0, %eax
  je 2f
1:
  jmp *%eax
2:
  mov $12, %eax
  call _libfmod_so_save_regs_and_resolve
  jmp FMOD5_ChannelGroup_Get3DSpread
  .cfi_endproc
/*
 * Copyright 2019-2021 Yury Gribov
 *
 * The MIT License (MIT)
 *
 * Use of this source code is governed by MIT license that can be
 * found in the LICENSE.txt file.
 */

  .globl FMOD5_ChannelGroup_GetAudibility
  .p2align 4
  .type FMOD5_ChannelGroup_GetAudibility, %function
#ifndef IMPLIB_EXPORT_SHIMS
  .hidden FMOD5_ChannelGroup_GetAudibility
#endif
FMOD5_ChannelGroup_GetAudibility:
  .cfi_startproc
  .cfi_def_cfa_offset 4  // Return address
  // add $0, %rsp  Why GDB fails to step over call without this?!
  // x86 has no support for PC-relative addressing so code is not very efficient.
  // We also trash EAX here (it's call-clobbered in cdecl).
  call __implib.x86.get_pc_thunk.ax
  addl $_GLOBAL_OFFSET_TABLE_, %eax
  movl 52+_libfmod_so_tramp_table@GOTOFF(%eax), %eax
  cmp $0, %eax
  je 2f
1:
  jmp *%eax
2:
  mov $13, %eax
  call _libfmod_so_save_regs_and_resolve
  jmp FMOD5_ChannelGroup_GetAudibility
  .cfi_endproc
/*
 * Copyright 2019-2021 Yury Gribov
 *
 * The MIT License (MIT)
 *
 * Use of this source code is governed by MIT license that can be
 * found in the LICENSE.txt file.
 */

  .globl FMOD5_ChannelGroup_GetChannel
  .p2align 4
  .type FMOD5_ChannelGroup_GetChannel, %function
#ifndef IMPLIB_EXPORT_SHIMS
  .hidden FMOD5_ChannelGroup_GetChannel
#endif
FMOD5_ChannelGroup_GetChannel:
  .cfi_startproc
  .cfi_def_cfa_offset 4  // Return address
  // add $0, %rsp  Why GDB fails to step over call without this?!
  // x86 has no support for PC-relative addressing so code is not very efficient.
  // We also trash EAX here (it's call-clobbered in cdecl).
  call __implib.x86.get_pc_thunk.ax
  addl $_GLOBAL_OFFSET_TABLE_, %eax
  movl 56+_libfmod_so_tramp_table@GOTOFF(%eax), %eax
  cmp $0, %eax
  je 2f
1:
  jmp *%eax
2:
  mov $14, %eax
  call _libfmod_so_save_regs_and_resolve
  jmp FMOD5_ChannelGroup_GetChannel
  .cfi_endproc
/*
 * Copyright 2019-2021 Yury Gribov
 *
 * The MIT License (MIT)
 *
 * Use of this source code is governed by MIT license that can be
 * found in the LICENSE.txt file.
 */

  .globl FMOD5_ChannelGroup_GetDSP
  .p2align 4
  .type FMOD5_ChannelGroup_GetDSP, %function
#ifndef IMPLIB_EXPORT_SHIMS
  .hidden FMOD5_ChannelGroup_GetDSP
#endif
FMOD5_ChannelGroup_GetDSP:
  .cfi_startproc
  .cfi_def_cfa_offset 4  // Return address
  // add $0, %rsp  Why GDB fails to step over call without this?!
  // x86 has no support for PC-relative addressing so code is not very efficient.
  // We also trash EAX here (it's call-clobbered in cdecl).
  call __implib.x86.get_pc_thunk.ax
  addl $_GLOBAL_OFFSET_TABLE_, %eax
  movl 60+_libfmod_so_tramp_table@GOTOFF(%eax), %eax
  cmp $0, %eax
  je 2f
1:
  jmp *%eax
2:
  mov $15, %eax
  call _libfmod_so_save_regs_and_resolve
  jmp FMOD5_ChannelGroup_GetDSP
  .cfi_endproc
/*
 * Copyright 2019-2021 Yury Gribov
 *
 * The MIT License (MIT)
 *
 * Use of this source code is governed by MIT license that can be
 * found in the LICENSE.txt file.
 */

  .globl FMOD5_ChannelGroup_GetDSPClock
  .p2align 4
  .type FMOD5_ChannelGroup_GetDSPClock, %function
#ifndef IMPLIB_EXPORT_SHIMS
  .hidden FMOD5_ChannelGroup_GetDSPClock
#endif
FMOD5_ChannelGroup_GetDSPClock:
  .cfi_startproc
  .cfi_def_cfa_offset 4  // Return address
  // add $0, %rsp  Why GDB fails to step over call without this?!
  // x86 has no support for PC-relative addressing so code is not very efficient.
  // We also trash EAX here (it's call-clobbered in cdecl).
  call __implib.x86.get_pc_thunk.ax
  addl $_GLOBAL_OFFSET_TABLE_, %eax
  movl 64+_libfmod_so_tramp_table@GOTOFF(%eax), %eax
  cmp $0, %eax
  je 2f
1:
  jmp *%eax
2:
  mov $16, %eax
  call _libfmod_so_save_regs_and_resolve
  jmp FMOD5_ChannelGroup_GetDSPClock
  .cfi_endproc
/*
 * Copyright 2019-2021 Yury Gribov
 *
 * The MIT License (MIT)
 *
 * Use of this source code is governed by MIT license that can be
 * found in the LICENSE.txt file.
 */

  .globl FMOD5_ChannelGroup_GetDSPIndex
  .p2align 4
  .type FMOD5_ChannelGroup_GetDSPIndex, %function
#ifndef IMPLIB_EXPORT_SHIMS
  .hidden FMOD5_ChannelGroup_GetDSPIndex
#endif
FMOD5_ChannelGroup_GetDSPIndex:
  .cfi_startproc
  .cfi_def_cfa_offset 4  // Return address
  // add $0, %rsp  Why GDB fails to step over call without this?!
  // x86 has no support for PC-relative addressing so code is not very efficient.
  // We also trash EAX here (it's call-clobbered in cdecl).
  call __implib.x86.get_pc_thunk.ax
  addl $_GLOBAL_OFFSET_TABLE_, %eax
  movl 68+_libfmod_so_tramp_table@GOTOFF(%eax), %eax
  cmp $0, %eax
  je 2f
1:
  jmp *%eax
2:
  mov $17, %eax
  call _libfmod_so_save_regs_and_resolve
  jmp FMOD5_ChannelGroup_GetDSPIndex
  .cfi_endproc
/*
 * Copyright 2019-2021 Yury Gribov
 *
 * The MIT License (MIT)
 *
 * Use of this source code is governed by MIT license that can be
 * found in the LICENSE.txt file.
 */

  .globl FMOD5_ChannelGroup_GetDelay
  .p2align 4
  .type FMOD5_ChannelGroup_GetDelay, %function
#ifndef IMPLIB_EXPORT_SHIMS
  .hidden FMOD5_ChannelGroup_GetDelay
#endif
FMOD5_ChannelGroup_GetDelay:
  .cfi_startproc
  .cfi_def_cfa_offset 4  // Return address
  // add $0, %rsp  Why GDB fails to step over call without this?!
  // x86 has no support for PC-relative addressing so code is not very efficient.
  // We also trash EAX here (it's call-clobbered in cdecl).
  call __implib.x86.get_pc_thunk.ax
  addl $_GLOBAL_OFFSET_TABLE_, %eax
  movl 72+_libfmod_so_tramp_table@GOTOFF(%eax), %eax
  cmp $0, %eax
  je 2f
1:
  jmp *%eax
2:
  mov $18, %eax
  call _libfmod_so_save_regs_and_resolve
  jmp FMOD5_ChannelGroup_GetDelay
  .cfi_endproc
/*
 * Copyright 2019-2021 Yury Gribov
 *
 * The MIT License (MIT)
 *
 * Use of this source code is governed by MIT license that can be
 * found in the LICENSE.txt file.
 */

  .globl FMOD5_ChannelGroup_GetFadePoints
  .p2align 4
  .type FMOD5_ChannelGroup_GetFadePoints, %function
#ifndef IMPLIB_EXPORT_SHIMS
  .hidden FMOD5_ChannelGroup_GetFadePoints
#endif
FMOD5_ChannelGroup_GetFadePoints:
  .cfi_startproc
  .cfi_def_cfa_offset 4  // Return address
  // add $0, %rsp  Why GDB fails to step over call without this?!
  // x86 has no support for PC-relative addressing so code is not very efficient.
  // We also trash EAX here (it's call-clobbered in cdecl).
  call __implib.x86.get_pc_thunk.ax
  addl $_GLOBAL_OFFSET_TABLE_, %eax
  movl 76+_libfmod_so_tramp_table@GOTOFF(%eax), %eax
  cmp $0, %eax
  je 2f
1:
  jmp *%eax
2:
  mov $19, %eax
  call _libfmod_so_save_regs_and_resolve
  jmp FMOD5_ChannelGroup_GetFadePoints
  .cfi_endproc
/*
 * Copyright 2019-2021 Yury Gribov
 *
 * The MIT License (MIT)
 *
 * Use of this source code is governed by MIT license that can be
 * found in the LICENSE.txt file.
 */

  .globl FMOD5_ChannelGroup_GetGroup
  .p2align 4
  .type FMOD5_ChannelGroup_GetGroup, %function
#ifndef IMPLIB_EXPORT_SHIMS
  .hidden FMOD5_ChannelGroup_GetGroup
#endif
FMOD5_ChannelGroup_GetGroup:
  .cfi_startproc
  .cfi_def_cfa_offset 4  // Return address
  // add $0, %rsp  Why GDB fails to step over call without this?!
  // x86 has no support for PC-relative addressing so code is not very efficient.
  // We also trash EAX here (it's call-clobbered in cdecl).
  call __implib.x86.get_pc_thunk.ax
  addl $_GLOBAL_OFFSET_TABLE_, %eax
  movl 80+_libfmod_so_tramp_table@GOTOFF(%eax), %eax
  cmp $0, %eax
  je 2f
1:
  jmp *%eax
2:
  mov $20, %eax
  call _libfmod_so_save_regs_and_resolve
  jmp FMOD5_ChannelGroup_GetGroup
  .cfi_endproc
/*
 * Copyright 2019-2021 Yury Gribov
 *
 * The MIT License (MIT)
 *
 * Use of this source code is governed by MIT license that can be
 * found in the LICENSE.txt file.
 */

  .globl FMOD5_ChannelGroup_GetLowPassGain
  .p2align 4
  .type FMOD5_ChannelGroup_GetLowPassGain, %function
#ifndef IMPLIB_EXPORT_SHIMS
  .hidden FMOD5_ChannelGroup_GetLowPassGain
#endif
FMOD5_ChannelGroup_GetLowPassGain:
  .cfi_startproc
  .cfi_def_cfa_offset 4  // Return address
  // add $0, %rsp  Why GDB fails to step over call without this?!
  // x86 has no support for PC-relative addressing so code is not very efficient.
  // We also trash EAX here (it's call-clobbered in cdecl).
  call __implib.x86.get_pc_thunk.ax
  addl $_GLOBAL_OFFSET_TABLE_, %eax
  movl 84+_libfmod_so_tramp_table@GOTOFF(%eax), %eax
  cmp $0, %eax
  je 2f
1:
  jmp *%eax
2:
  mov $21, %eax
  call _libfmod_so_save_regs_and_resolve
  jmp FMOD5_ChannelGroup_GetLowPassGain
  .cfi_endproc
/*
 * Copyright 2019-2021 Yury Gribov
 *
 * The MIT License (MIT)
 *
 * Use of this source code is governed by MIT license that can be
 * found in the LICENSE.txt file.
 */

  .globl FMOD5_ChannelGroup_GetMixMatrix
  .p2align 4
  .type FMOD5_ChannelGroup_GetMixMatrix, %function
#ifndef IMPLIB_EXPORT_SHIMS
  .hidden FMOD5_ChannelGroup_GetMixMatrix
#endif
FMOD5_ChannelGroup_GetMixMatrix:
  .cfi_startproc
  .cfi_def_cfa_offset 4  // Return address
  // add $0, %rsp  Why GDB fails to step over call without this?!
  // x86 has no support for PC-relative addressing so code is not very efficient.
  // We also trash EAX here (it's call-clobbered in cdecl).
  call __implib.x86.get_pc_thunk.ax
  addl $_GLOBAL_OFFSET_TABLE_, %eax
  movl 88+_libfmod_so_tramp_table@GOTOFF(%eax), %eax
  cmp $0, %eax
  je 2f
1:
  jmp *%eax
2:
  mov $22, %eax
  call _libfmod_so_save_regs_and_resolve
  jmp FMOD5_ChannelGroup_GetMixMatrix
  .cfi_endproc
/*
 * Copyright 2019-2021 Yury Gribov
 *
 * The MIT License (MIT)
 *
 * Use of this source code is governed by MIT license that can be
 * found in the LICENSE.txt file.
 */

  .globl FMOD5_ChannelGroup_GetMode
  .p2align 4
  .type FMOD5_ChannelGroup_GetMode, %function
#ifndef IMPLIB_EXPORT_SHIMS
  .hidden FMOD5_ChannelGroup_GetMode
#endif
FMOD5_ChannelGroup_GetMode:
  .cfi_startproc
  .cfi_def_cfa_offset 4  // Return address
  // add $0, %rsp  Why GDB fails to step over call without this?!
  // x86 has no support for PC-relative addressing so code is not very efficient.
  // We also trash EAX here (it's call-clobbered in cdecl).
  call __implib.x86.get_pc_thunk.ax
  addl $_GLOBAL_OFFSET_TABLE_, %eax
  movl 92+_libfmod_so_tramp_table@GOTOFF(%eax), %eax
  cmp $0, %eax
  je 2f
1:
  jmp *%eax
2:
  mov $23, %eax
  call _libfmod_so_save_regs_and_resolve
  jmp FMOD5_ChannelGroup_GetMode
  .cfi_endproc
/*
 * Copyright 2019-2021 Yury Gribov
 *
 * The MIT License (MIT)
 *
 * Use of this source code is governed by MIT license that can be
 * found in the LICENSE.txt file.
 */

  .globl FMOD5_ChannelGroup_GetMute
  .p2align 4
  .type FMOD5_ChannelGroup_GetMute, %function
#ifndef IMPLIB_EXPORT_SHIMS
  .hidden FMOD5_ChannelGroup_GetMute
#endif
FMOD5_ChannelGroup_GetMute:
  .cfi_startproc
  .cfi_def_cfa_offset 4  // Return address
  // add $0, %rsp  Why GDB fails to step over call without this?!
  // x86 has no support for PC-relative addressing so code is not very efficient.
  // We also trash EAX here (it's call-clobbered in cdecl).
  call __implib.x86.get_pc_thunk.ax
  addl $_GLOBAL_OFFSET_TABLE_, %eax
  movl 96+_libfmod_so_tramp_table@GOTOFF(%eax), %eax
  cmp $0, %eax
  je 2f
1:
  jmp *%eax
2:
  mov $24, %eax
  call _libfmod_so_save_regs_and_resolve
  jmp FMOD5_ChannelGroup_GetMute
  .cfi_endproc
/*
 * Copyright 2019-2021 Yury Gribov
 *
 * The MIT License (MIT)
 *
 * Use of this source code is governed by MIT license that can be
 * found in the LICENSE.txt file.
 */

  .globl FMOD5_ChannelGroup_GetName
  .p2align 4
  .type FMOD5_ChannelGroup_GetName, %function
#ifndef IMPLIB_EXPORT_SHIMS
  .hidden FMOD5_ChannelGroup_GetName
#endif
FMOD5_ChannelGroup_GetName:
  .cfi_startproc
  .cfi_def_cfa_offset 4  // Return address
  // add $0, %rsp  Why GDB fails to step over call without this?!
  // x86 has no support for PC-relative addressing so code is not very efficient.
  // We also trash EAX here (it's call-clobbered in cdecl).
  call __implib.x86.get_pc_thunk.ax
  addl $_GLOBAL_OFFSET_TABLE_, %eax
  movl 100+_libfmod_so_tramp_table@GOTOFF(%eax), %eax
  cmp $0, %eax
  je 2f
1:
  jmp *%eax
2:
  mov $25, %eax
  call _libfmod_so_save_regs_and_resolve
  jmp FMOD5_ChannelGroup_GetName
  .cfi_endproc
/*
 * Copyright 2019-2021 Yury Gribov
 *
 * The MIT License (MIT)
 *
 * Use of this source code is governed by MIT license that can be
 * found in the LICENSE.txt file.
 */

  .globl FMOD5_ChannelGroup_GetNumChannels
  .p2align 4
  .type FMOD5_ChannelGroup_GetNumChannels, %function
#ifndef IMPLIB_EXPORT_SHIMS
  .hidden FMOD5_ChannelGroup_GetNumChannels
#endif
FMOD5_ChannelGroup_GetNumChannels:
  .cfi_startproc
  .cfi_def_cfa_offset 4  // Return address
  // add $0, %rsp  Why GDB fails to step over call without this?!
  // x86 has no support for PC-relative addressing so code is not very efficient.
  // We also trash EAX here (it's call-clobbered in cdecl).
  call __implib.x86.get_pc_thunk.ax
  addl $_GLOBAL_OFFSET_TABLE_, %eax
  movl 104+_libfmod_so_tramp_table@GOTOFF(%eax), %eax
  cmp $0, %eax
  je 2f
1:
  jmp *%eax
2:
  mov $26, %eax
  call _libfmod_so_save_regs_and_resolve
  jmp FMOD5_ChannelGroup_GetNumChannels
  .cfi_endproc
/*
 * Copyright 2019-2021 Yury Gribov
 *
 * The MIT License (MIT)
 *
 * Use of this source code is governed by MIT license that can be
 * found in the LICENSE.txt file.
 */

  .globl FMOD5_ChannelGroup_GetNumDSPs
  .p2align 4
  .type FMOD5_ChannelGroup_GetNumDSPs, %function
#ifndef IMPLIB_EXPORT_SHIMS
  .hidden FMOD5_ChannelGroup_GetNumDSPs
#endif
FMOD5_ChannelGroup_GetNumDSPs:
  .cfi_startproc
  .cfi_def_cfa_offset 4  // Return address
  // add $0, %rsp  Why GDB fails to step over call without this?!
  // x86 has no support for PC-relative addressing so code is not very efficient.
  // We also trash EAX here (it's call-clobbered in cdecl).
  call __implib.x86.get_pc_thunk.ax
  addl $_GLOBAL_OFFSET_TABLE_, %eax
  movl 108+_libfmod_so_tramp_table@GOTOFF(%eax), %eax
  cmp $0, %eax
  je 2f
1:
  jmp *%eax
2:
  mov $27, %eax
  call _libfmod_so_save_regs_and_resolve
  jmp FMOD5_ChannelGroup_GetNumDSPs
  .cfi_endproc
/*
 * Copyright 2019-2021 Yury Gribov
 *
 * The MIT License (MIT)
 *
 * Use of this source code is governed by MIT license that can be
 * found in the LICENSE.txt file.
 */

  .globl FMOD5_ChannelGroup_GetNumGroups
  .p2align 4
  .type FMOD5_ChannelGroup_GetNumGroups, %function
#ifndef IMPLIB_EXPORT_SHIMS
  .hidden FMOD5_ChannelGroup_GetNumGroups
#endif
FMOD5_ChannelGroup_GetNumGroups:
  .cfi_startproc
  .cfi_def_cfa_offset 4  // Return address
  // add $0, %rsp  Why GDB fails to step over call without this?!
  // x86 has no support for PC-relative addressing so code is not very efficient.
  // We also trash EAX here (it's call-clobbered in cdecl).
  call __implib.x86.get_pc_thunk.ax
  addl $_GLOBAL_OFFSET_TABLE_, %eax
  movl 112+_libfmod_so_tramp_table@GOTOFF(%eax), %eax
  cmp $0, %eax
  je 2f
1:
  jmp *%eax
2:
  mov $28, %eax
  call _libfmod_so_save_regs_and_resolve
  jmp FMOD5_ChannelGroup_GetNumGroups
  .cfi_endproc
/*
 * Copyright 2019-2021 Yury Gribov
 *
 * The MIT License (MIT)
 *
 * Use of this source code is governed by MIT license that can be
 * found in the LICENSE.txt file.
 */

  .globl FMOD5_ChannelGroup_GetParentGroup
  .p2align 4
  .type FMOD5_ChannelGroup_GetParentGroup, %function
#ifndef IMPLIB_EXPORT_SHIMS
  .hidden FMOD5_ChannelGroup_GetParentGroup
#endif
FMOD5_ChannelGroup_GetParentGroup:
  .cfi_startproc
  .cfi_def_cfa_offset 4  // Return address
  // add $0, %rsp  Why GDB fails to step over call without this?!
  // x86 has no support for PC-relative addressing so code is not very efficient.
  // We also trash EAX here (it's call-clobbered in cdecl).
  call __implib.x86.get_pc_thunk.ax
  addl $_GLOBAL_OFFSET_TABLE_, %eax
  movl 116+_libfmod_so_tramp_table@GOTOFF(%eax), %eax
  cmp $0, %eax
  je 2f
1:
  jmp *%eax
2:
  mov $29, %eax
  call _libfmod_so_save_regs_and_resolve
  jmp FMOD5_ChannelGroup_GetParentGroup
  .cfi_endproc
/*
 * Copyright 2019-2021 Yury Gribov
 *
 * The MIT License (MIT)
 *
 * Use of this source code is governed by MIT license that can be
 * found in the LICENSE.txt file.
 */

  .globl FMOD5_ChannelGroup_GetPaused
  .p2align 4
  .type FMOD5_ChannelGroup_GetPaused, %function
#ifndef IMPLIB_EXPORT_SHIMS
  .hidden FMOD5_ChannelGroup_GetPaused
#endif
FMOD5_ChannelGroup_GetPaused:
  .cfi_startproc
  .cfi_def_cfa_offset 4  // Return address
  // add $0, %rsp  Why GDB fails to step over call without this?!
  // x86 has no support for PC-relative addressing so code is not very efficient.
  // We also trash EAX here (it's call-clobbered in cdecl).
  call __implib.x86.get_pc_thunk.ax
  addl $_GLOBAL_OFFSET_TABLE_, %eax
  movl 120+_libfmod_so_tramp_table@GOTOFF(%eax), %eax
  cmp $0, %eax
  je 2f
1:
  jmp *%eax
2:
  mov $30, %eax
  call _libfmod_so_save_regs_and_resolve
  jmp FMOD5_ChannelGroup_GetPaused
  .cfi_endproc
/*
 * Copyright 2019-2021 Yury Gribov
 *
 * The MIT License (MIT)
 *
 * Use of this source code is governed by MIT license that can be
 * found in the LICENSE.txt file.
 */

  .globl FMOD5_ChannelGroup_GetPitch
  .p2align 4
  .type FMOD5_ChannelGroup_GetPitch, %function
#ifndef IMPLIB_EXPORT_SHIMS
  .hidden FMOD5_ChannelGroup_GetPitch
#endif
FMOD5_ChannelGroup_GetPitch:
  .cfi_startproc
  .cfi_def_cfa_offset 4  // Return address
  // add $0, %rsp  Why GDB fails to step over call without this?!
  // x86 has no support for PC-relative addressing so code is not very efficient.
  // We also trash EAX here (it's call-clobbered in cdecl).
  call __implib.x86.get_pc_thunk.ax
  addl $_GLOBAL_OFFSET_TABLE_, %eax
  movl 124+_libfmod_so_tramp_table@GOTOFF(%eax), %eax
  cmp $0, %eax
  je 2f
1:
  jmp *%eax
2:
  mov $31, %eax
  call _libfmod_so_save_regs_and_resolve
  jmp FMOD5_ChannelGroup_GetPitch
  .cfi_endproc
/*
 * Copyright 2019-2021 Yury Gribov
 *
 * The MIT License (MIT)
 *
 * Use of this source code is governed by MIT license that can be
 * found in the LICENSE.txt file.
 */

  .globl FMOD5_ChannelGroup_GetReverbProperties
  .p2align 4
  .type FMOD5_ChannelGroup_GetReverbProperties, %function
#ifndef IMPLIB_EXPORT_SHIMS
  .hidden FMOD5_ChannelGroup_GetReverbProperties
#endif
FMOD5_ChannelGroup_GetReverbProperties:
  .cfi_startproc
  .cfi_def_cfa_offset 4  // Return address
  // add $0, %rsp  Why GDB fails to step over call without this?!
  // x86 has no support for PC-relative addressing so code is not very efficient.
  // We also trash EAX here (it's call-clobbered in cdecl).
  call __implib.x86.get_pc_thunk.ax
  addl $_GLOBAL_OFFSET_TABLE_, %eax
  movl 128+_libfmod_so_tramp_table@GOTOFF(%eax), %eax
  cmp $0, %eax
  je 2f
1:
  jmp *%eax
2:
  mov $32, %eax
  call _libfmod_so_save_regs_and_resolve
  jmp FMOD5_ChannelGroup_GetReverbProperties
  .cfi_endproc
/*
 * Copyright 2019-2021 Yury Gribov
 *
 * The MIT License (MIT)
 *
 * Use of this source code is governed by MIT license that can be
 * found in the LICENSE.txt file.
 */

  .globl FMOD5_ChannelGroup_GetSystemObject
  .p2align 4
  .type FMOD5_ChannelGroup_GetSystemObject, %function
#ifndef IMPLIB_EXPORT_SHIMS
  .hidden FMOD5_ChannelGroup_GetSystemObject
#endif
FMOD5_ChannelGroup_GetSystemObject:
  .cfi_startproc
  .cfi_def_cfa_offset 4  // Return address
  // add $0, %rsp  Why GDB fails to step over call without this?!
  // x86 has no support for PC-relative addressing so code is not very efficient.
  // We also trash EAX here (it's call-clobbered in cdecl).
  call __implib.x86.get_pc_thunk.ax
  addl $_GLOBAL_OFFSET_TABLE_, %eax
  movl 132+_libfmod_so_tramp_table@GOTOFF(%eax), %eax
  cmp $0, %eax
  je 2f
1:
  jmp *%eax
2:
  mov $33, %eax
  call _libfmod_so_save_regs_and_resolve
  jmp FMOD5_ChannelGroup_GetSystemObject
  .cfi_endproc
/*
 * Copyright 2019-2021 Yury Gribov
 *
 * The MIT License (MIT)
 *
 * Use of this source code is governed by MIT license that can be
 * found in the LICENSE.txt file.
 */

  .globl FMOD5_ChannelGroup_GetUserData
  .p2align 4
  .type FMOD5_ChannelGroup_GetUserData, %function
#ifndef IMPLIB_EXPORT_SHIMS
  .hidden FMOD5_ChannelGroup_GetUserData
#endif
FMOD5_ChannelGroup_GetUserData:
  .cfi_startproc
  .cfi_def_cfa_offset 4  // Return address
  // add $0, %rsp  Why GDB fails to step over call without this?!
  // x86 has no support for PC-relative addressing so code is not very efficient.
  // We also trash EAX here (it's call-clobbered in cdecl).
  call __implib.x86.get_pc_thunk.ax
  addl $_GLOBAL_OFFSET_TABLE_, %eax
  movl 136+_libfmod_so_tramp_table@GOTOFF(%eax), %eax
  cmp $0, %eax
  je 2f
1:
  jmp *%eax
2:
  mov $34, %eax
  call _libfmod_so_save_regs_and_resolve
  jmp FMOD5_ChannelGroup_GetUserData
  .cfi_endproc
/*
 * Copyright 2019-2021 Yury Gribov
 *
 * The MIT License (MIT)
 *
 * Use of this source code is governed by MIT license that can be
 * found in the LICENSE.txt file.
 */

  .globl FMOD5_ChannelGroup_GetVolume
  .p2align 4
  .type FMOD5_ChannelGroup_GetVolume, %function
#ifndef IMPLIB_EXPORT_SHIMS
  .hidden FMOD5_ChannelGroup_GetVolume
#endif
FMOD5_ChannelGroup_GetVolume:
  .cfi_startproc
  .cfi_def_cfa_offset 4  // Return address
  // add $0, %rsp  Why GDB fails to step over call without this?!
  // x86 has no support for PC-relative addressing so code is not very efficient.
  // We also trash EAX here (it's call-clobbered in cdecl).
  call __implib.x86.get_pc_thunk.ax
  addl $_GLOBAL_OFFSET_TABLE_, %eax
  movl 140+_libfmod_so_tramp_table@GOTOFF(%eax), %eax
  cmp $0, %eax
  je 2f
1:
  jmp *%eax
2:
  mov $35, %eax
  call _libfmod_so_save_regs_and_resolve
  jmp FMOD5_ChannelGroup_GetVolume
  .cfi_endproc
/*
 * Copyright 2019-2021 Yury Gribov
 *
 * The MIT License (MIT)
 *
 * Use of this source code is governed by MIT license that can be
 * found in the LICENSE.txt file.
 */

  .globl FMOD5_ChannelGroup_GetVolumeRamp
  .p2align 4
  .type FMOD5_ChannelGroup_GetVolumeRamp, %function
#ifndef IMPLIB_EXPORT_SHIMS
  .hidden FMOD5_ChannelGroup_GetVolumeRamp
#endif
FMOD5_ChannelGroup_GetVolumeRamp:
  .cfi_startproc
  .cfi_def_cfa_offset 4  // Return address
  // add $0, %rsp  Why GDB fails to step over call without this?!
  // x86 has no support for PC-relative addressing so code is not very efficient.
  // We also trash EAX here (it's call-clobbered in cdecl).
  call __implib.x86.get_pc_thunk.ax
  addl $_GLOBAL_OFFSET_TABLE_, %eax
  movl 144+_libfmod_so_tramp_table@GOTOFF(%eax), %eax
  cmp $0, %eax
  je 2f
1:
  jmp *%eax
2:
  mov $36, %eax
  call _libfmod_so_save_regs_and_resolve
  jmp FMOD5_ChannelGroup_GetVolumeRamp
  .cfi_endproc
/*
 * Copyright 2019-2021 Yury Gribov
 *
 * The MIT License (MIT)
 *
 * Use of this source code is governed by MIT license that can be
 * found in the LICENSE.txt file.
 */

  .globl FMOD5_ChannelGroup_IsPlaying
  .p2align 4
  .type FMOD5_ChannelGroup_IsPlaying, %function
#ifndef IMPLIB_EXPORT_SHIMS
  .hidden FMOD5_ChannelGroup_IsPlaying
#endif
FMOD5_ChannelGroup_IsPlaying:
  .cfi_startproc
  .cfi_def_cfa_offset 4  // Return address
  // add $0, %rsp  Why GDB fails to step over call without this?!
  // x86 has no support for PC-relative addressing so code is not very efficient.
  // We also trash EAX here (it's call-clobbered in cdecl).
  call __implib.x86.get_pc_thunk.ax
  addl $_GLOBAL_OFFSET_TABLE_, %eax
  movl 148+_libfmod_so_tramp_table@GOTOFF(%eax), %eax
  cmp $0, %eax
  je 2f
1:
  jmp *%eax
2:
  mov $37, %eax
  call _libfmod_so_save_regs_and_resolve
  jmp FMOD5_ChannelGroup_IsPlaying
  .cfi_endproc
/*
 * Copyright 2019-2021 Yury Gribov
 *
 * The MIT License (MIT)
 *
 * Use of this source code is governed by MIT license that can be
 * found in the LICENSE.txt file.
 */

  .globl FMOD5_ChannelGroup_Release
  .p2align 4
  .type FMOD5_ChannelGroup_Release, %function
#ifndef IMPLIB_EXPORT_SHIMS
  .hidden FMOD5_ChannelGroup_Release
#endif
FMOD5_ChannelGroup_Release:
  .cfi_startproc
  .cfi_def_cfa_offset 4  // Return address
  // add $0, %rsp  Why GDB fails to step over call without this?!
  // x86 has no support for PC-relative addressing so code is not very efficient.
  // We also trash EAX here (it's call-clobbered in cdecl).
  call __implib.x86.get_pc_thunk.ax
  addl $_GLOBAL_OFFSET_TABLE_, %eax
  movl 152+_libfmod_so_tramp_table@GOTOFF(%eax), %eax
  cmp $0, %eax
  je 2f
1:
  jmp *%eax
2:
  mov $38, %eax
  call _libfmod_so_save_regs_and_resolve
  jmp FMOD5_ChannelGroup_Release
  .cfi_endproc
/*
 * Copyright 2019-2021 Yury Gribov
 *
 * The MIT License (MIT)
 *
 * Use of this source code is governed by MIT license that can be
 * found in the LICENSE.txt file.
 */

  .globl FMOD5_ChannelGroup_RemoveDSP
  .p2align 4
  .type FMOD5_ChannelGroup_RemoveDSP, %function
#ifndef IMPLIB_EXPORT_SHIMS
  .hidden FMOD5_ChannelGroup_RemoveDSP
#endif
FMOD5_ChannelGroup_RemoveDSP:
  .cfi_startproc
  .cfi_def_cfa_offset 4  // Return address
  // add $0, %rsp  Why GDB fails to step over call without this?!
  // x86 has no support for PC-relative addressing so code is not very efficient.
  // We also trash EAX here (it's call-clobbered in cdecl).
  call __implib.x86.get_pc_thunk.ax
  addl $_GLOBAL_OFFSET_TABLE_, %eax
  movl 156+_libfmod_so_tramp_table@GOTOFF(%eax), %eax
  cmp $0, %eax
  je 2f
1:
  jmp *%eax
2:
  mov $39, %eax
  call _libfmod_so_save_regs_and_resolve
  jmp FMOD5_ChannelGroup_RemoveDSP
  .cfi_endproc
/*
 * Copyright 2019-2021 Yury Gribov
 *
 * The MIT License (MIT)
 *
 * Use of this source code is governed by MIT license that can be
 * found in the LICENSE.txt file.
 */

  .globl FMOD5_ChannelGroup_RemoveFadePoints
  .p2align 4
  .type FMOD5_ChannelGroup_RemoveFadePoints, %function
#ifndef IMPLIB_EXPORT_SHIMS
  .hidden FMOD5_ChannelGroup_RemoveFadePoints
#endif
FMOD5_ChannelGroup_RemoveFadePoints:
  .cfi_startproc
  .cfi_def_cfa_offset 4  // Return address
  // add $0, %rsp  Why GDB fails to step over call without this?!
  // x86 has no support for PC-relative addressing so code is not very efficient.
  // We also trash EAX here (it's call-clobbered in cdecl).
  call __implib.x86.get_pc_thunk.ax
  addl $_GLOBAL_OFFSET_TABLE_, %eax
  movl 160+_libfmod_so_tramp_table@GOTOFF(%eax), %eax
  cmp $0, %eax
  je 2f
1:
  jmp *%eax
2:
  mov $40, %eax
  call _libfmod_so_save_regs_and_resolve
  jmp FMOD5_ChannelGroup_RemoveFadePoints
  .cfi_endproc
/*
 * Copyright 2019-2021 Yury Gribov
 *
 * The MIT License (MIT)
 *
 * Use of this source code is governed by MIT license that can be
 * found in the LICENSE.txt file.
 */

  .globl FMOD5_ChannelGroup_Set3DAttributes
  .p2align 4
  .type FMOD5_ChannelGroup_Set3DAttributes, %function
#ifndef IMPLIB_EXPORT_SHIMS
  .hidden FMOD5_ChannelGroup_Set3DAttributes
#endif
FMOD5_ChannelGroup_Set3DAttributes:
  .cfi_startproc
  .cfi_def_cfa_offset 4  // Return address
  // add $0, %rsp  Why GDB fails to step over call without this?!
  // x86 has no support for PC-relative addressing so code is not very efficient.
  // We also trash EAX here (it's call-clobbered in cdecl).
  call __implib.x86.get_pc_thunk.ax
  addl $_GLOBAL_OFFSET_TABLE_, %eax
  movl 164+_libfmod_so_tramp_table@GOTOFF(%eax), %eax
  cmp $0, %eax
  je 2f
1:
  jmp *%eax
2:
  mov $41, %eax
  call _libfmod_so_save_regs_and_resolve
  jmp FMOD5_ChannelGroup_Set3DAttributes
  .cfi_endproc
/*
 * Copyright 2019-2021 Yury Gribov
 *
 * The MIT License (MIT)
 *
 * Use of this source code is governed by MIT license that can be
 * found in the LICENSE.txt file.
 */

  .globl FMOD5_ChannelGroup_Set3DConeOrientation
  .p2align 4
  .type FMOD5_ChannelGroup_Set3DConeOrientation, %function
#ifndef IMPLIB_EXPORT_SHIMS
  .hidden FMOD5_ChannelGroup_Set3DConeOrientation
#endif
FMOD5_ChannelGroup_Set3DConeOrientation:
  .cfi_startproc
  .cfi_def_cfa_offset 4  // Return address
  // add $0, %rsp  Why GDB fails to step over call without this?!
  // x86 has no support for PC-relative addressing so code is not very efficient.
  // We also trash EAX here (it's call-clobbered in cdecl).
  call __implib.x86.get_pc_thunk.ax
  addl $_GLOBAL_OFFSET_TABLE_, %eax
  movl 168+_libfmod_so_tramp_table@GOTOFF(%eax), %eax
  cmp $0, %eax
  je 2f
1:
  jmp *%eax
2:
  mov $42, %eax
  call _libfmod_so_save_regs_and_resolve
  jmp FMOD5_ChannelGroup_Set3DConeOrientation
  .cfi_endproc
/*
 * Copyright 2019-2021 Yury Gribov
 *
 * The MIT License (MIT)
 *
 * Use of this source code is governed by MIT license that can be
 * found in the LICENSE.txt file.
 */

  .globl FMOD5_ChannelGroup_Set3DConeSettings
  .p2align 4
  .type FMOD5_ChannelGroup_Set3DConeSettings, %function
#ifndef IMPLIB_EXPORT_SHIMS
  .hidden FMOD5_ChannelGroup_Set3DConeSettings
#endif
FMOD5_ChannelGroup_Set3DConeSettings:
  .cfi_startproc
  .cfi_def_cfa_offset 4  // Return address
  // add $0, %rsp  Why GDB fails to step over call without this?!
  // x86 has no support for PC-relative addressing so code is not very efficient.
  // We also trash EAX here (it's call-clobbered in cdecl).
  call __implib.x86.get_pc_thunk.ax
  addl $_GLOBAL_OFFSET_TABLE_, %eax
  movl 172+_libfmod_so_tramp_table@GOTOFF(%eax), %eax
  cmp $0, %eax
  je 2f
1:
  jmp *%eax
2:
  mov $43, %eax
  call _libfmod_so_save_regs_and_resolve
  jmp FMOD5_ChannelGroup_Set3DConeSettings
  .cfi_endproc
/*
 * Copyright 2019-2021 Yury Gribov
 *
 * The MIT License (MIT)
 *
 * Use of this source code is governed by MIT license that can be
 * found in the LICENSE.txt file.
 */

  .globl FMOD5_ChannelGroup_Set3DCustomRolloff
  .p2align 4
  .type FMOD5_ChannelGroup_Set3DCustomRolloff, %function
#ifndef IMPLIB_EXPORT_SHIMS
  .hidden FMOD5_ChannelGroup_Set3DCustomRolloff
#endif
FMOD5_ChannelGroup_Set3DCustomRolloff:
  .cfi_startproc
  .cfi_def_cfa_offset 4  // Return address
  // add $0, %rsp  Why GDB fails to step over call without this?!
  // x86 has no support for PC-relative addressing so code is not very efficient.
  // We also trash EAX here (it's call-clobbered in cdecl).
  call __implib.x86.get_pc_thunk.ax
  addl $_GLOBAL_OFFSET_TABLE_, %eax
  movl 176+_libfmod_so_tramp_table@GOTOFF(%eax), %eax
  cmp $0, %eax
  je 2f
1:
  jmp *%eax
2:
  mov $44, %eax
  call _libfmod_so_save_regs_and_resolve
  jmp FMOD5_ChannelGroup_Set3DCustomRolloff
  .cfi_endproc
/*
 * Copyright 2019-2021 Yury Gribov
 *
 * The MIT License (MIT)
 *
 * Use of this source code is governed by MIT license that can be
 * found in the LICENSE.txt file.
 */

  .globl FMOD5_ChannelGroup_Set3DDistanceFilter
  .p2align 4
  .type FMOD5_ChannelGroup_Set3DDistanceFilter, %function
#ifndef IMPLIB_EXPORT_SHIMS
  .hidden FMOD5_ChannelGroup_Set3DDistanceFilter
#endif
FMOD5_ChannelGroup_Set3DDistanceFilter:
  .cfi_startproc
  .cfi_def_cfa_offset 4  // Return address
  // add $0, %rsp  Why GDB fails to step over call without this?!
  // x86 has no support for PC-relative addressing so code is not very efficient.
  // We also trash EAX here (it's call-clobbered in cdecl).
  call __implib.x86.get_pc_thunk.ax
  addl $_GLOBAL_OFFSET_TABLE_, %eax
  movl 180+_libfmod_so_tramp_table@GOTOFF(%eax), %eax
  cmp $0, %eax
  je 2f
1:
  jmp *%eax
2:
  mov $45, %eax
  call _libfmod_so_save_regs_and_resolve
  jmp FMOD5_ChannelGroup_Set3DDistanceFilter
  .cfi_endproc
/*
 * Copyright 2019-2021 Yury Gribov
 *
 * The MIT License (MIT)
 *
 * Use of this source code is governed by MIT license that can be
 * found in the LICENSE.txt file.
 */

  .globl FMOD5_ChannelGroup_Set3DDopplerLevel
  .p2align 4
  .type FMOD5_ChannelGroup_Set3DDopplerLevel, %function
#ifndef IMPLIB_EXPORT_SHIMS
  .hidden FMOD5_ChannelGroup_Set3DDopplerLevel
#endif
FMOD5_ChannelGroup_Set3DDopplerLevel:
  .cfi_startproc
  .cfi_def_cfa_offset 4  // Return address
  // add $0, %rsp  Why GDB fails to step over call without this?!
  // x86 has no support for PC-relative addressing so code is not very efficient.
  // We also trash EAX here (it's call-clobbered in cdecl).
  call __implib.x86.get_pc_thunk.ax
  addl $_GLOBAL_OFFSET_TABLE_, %eax
  movl 184+_libfmod_so_tramp_table@GOTOFF(%eax), %eax
  cmp $0, %eax
  je 2f
1:
  jmp *%eax
2:
  mov $46, %eax
  call _libfmod_so_save_regs_and_resolve
  jmp FMOD5_ChannelGroup_Set3DDopplerLevel
  .cfi_endproc
/*
 * Copyright 2019-2021 Yury Gribov
 *
 * The MIT License (MIT)
 *
 * Use of this source code is governed by MIT license that can be
 * found in the LICENSE.txt file.
 */

  .globl FMOD5_ChannelGroup_Set3DLevel
  .p2align 4
  .type FMOD5_ChannelGroup_Set3DLevel, %function
#ifndef IMPLIB_EXPORT_SHIMS
  .hidden FMOD5_ChannelGroup_Set3DLevel
#endif
FMOD5_ChannelGroup_Set3DLevel:
  .cfi_startproc
  .cfi_def_cfa_offset 4  // Return address
  // add $0, %rsp  Why GDB fails to step over call without this?!
  // x86 has no support for PC-relative addressing so code is not very efficient.
  // We also trash EAX here (it's call-clobbered in cdecl).
  call __implib.x86.get_pc_thunk.ax
  addl $_GLOBAL_OFFSET_TABLE_, %eax
  movl 188+_libfmod_so_tramp_table@GOTOFF(%eax), %eax
  cmp $0, %eax
  je 2f
1:
  jmp *%eax
2:
  mov $47, %eax
  call _libfmod_so_save_regs_and_resolve
  jmp FMOD5_ChannelGroup_Set3DLevel
  .cfi_endproc
/*
 * Copyright 2019-2021 Yury Gribov
 *
 * The MIT License (MIT)
 *
 * Use of this source code is governed by MIT license that can be
 * found in the LICENSE.txt file.
 */

  .globl FMOD5_ChannelGroup_Set3DMinMaxDistance
  .p2align 4
  .type FMOD5_ChannelGroup_Set3DMinMaxDistance, %function
#ifndef IMPLIB_EXPORT_SHIMS
  .hidden FMOD5_ChannelGroup_Set3DMinMaxDistance
#endif
FMOD5_ChannelGroup_Set3DMinMaxDistance:
  .cfi_startproc
  .cfi_def_cfa_offset 4  // Return address
  // add $0, %rsp  Why GDB fails to step over call without this?!
  // x86 has no support for PC-relative addressing so code is not very efficient.
  // We also trash EAX here (it's call-clobbered in cdecl).
  call __implib.x86.get_pc_thunk.ax
  addl $_GLOBAL_OFFSET_TABLE_, %eax
  movl 192+_libfmod_so_tramp_table@GOTOFF(%eax), %eax
  cmp $0, %eax
  je 2f
1:
  jmp *%eax
2:
  mov $48, %eax
  call _libfmod_so_save_regs_and_resolve
  jmp FMOD5_ChannelGroup_Set3DMinMaxDistance
  .cfi_endproc
/*
 * Copyright 2019-2021 Yury Gribov
 *
 * The MIT License (MIT)
 *
 * Use of this source code is governed by MIT license that can be
 * found in the LICENSE.txt file.
 */

  .globl FMOD5_ChannelGroup_Set3DOcclusion
  .p2align 4
  .type FMOD5_ChannelGroup_Set3DOcclusion, %function
#ifndef IMPLIB_EXPORT_SHIMS
  .hidden FMOD5_ChannelGroup_Set3DOcclusion
#endif
FMOD5_ChannelGroup_Set3DOcclusion:
  .cfi_startproc
  .cfi_def_cfa_offset 4  // Return address
  // add $0, %rsp  Why GDB fails to step over call without this?!
  // x86 has no support for PC-relative addressing so code is not very efficient.
  // We also trash EAX here (it's call-clobbered in cdecl).
  call __implib.x86.get_pc_thunk.ax
  addl $_GLOBAL_OFFSET_TABLE_, %eax
  movl 196+_libfmod_so_tramp_table@GOTOFF(%eax), %eax
  cmp $0, %eax
  je 2f
1:
  jmp *%eax
2:
  mov $49, %eax
  call _libfmod_so_save_regs_and_resolve
  jmp FMOD5_ChannelGroup_Set3DOcclusion
  .cfi_endproc
/*
 * Copyright 2019-2021 Yury Gribov
 *
 * The MIT License (MIT)
 *
 * Use of this source code is governed by MIT license that can be
 * found in the LICENSE.txt file.
 */

  .globl FMOD5_ChannelGroup_Set3DSpread
  .p2align 4
  .type FMOD5_ChannelGroup_Set3DSpread, %function
#ifndef IMPLIB_EXPORT_SHIMS
  .hidden FMOD5_ChannelGroup_Set3DSpread
#endif
FMOD5_ChannelGroup_Set3DSpread:
  .cfi_startproc
  .cfi_def_cfa_offset 4  // Return address
  // add $0, %rsp  Why GDB fails to step over call without this?!
  // x86 has no support for PC-relative addressing so code is not very efficient.
  // We also trash EAX here (it's call-clobbered in cdecl).
  call __implib.x86.get_pc_thunk.ax
  addl $_GLOBAL_OFFSET_TABLE_, %eax
  movl 200+_libfmod_so_tramp_table@GOTOFF(%eax), %eax
  cmp $0, %eax
  je 2f
1:
  jmp *%eax
2:
  mov $50, %eax
  call _libfmod_so_save_regs_and_resolve
  jmp FMOD5_ChannelGroup_Set3DSpread
  .cfi_endproc
/*
 * Copyright 2019-2021 Yury Gribov
 *
 * The MIT License (MIT)
 *
 * Use of this source code is governed by MIT license that can be
 * found in the LICENSE.txt file.
 */

  .globl FMOD5_ChannelGroup_SetCallback
  .p2align 4
  .type FMOD5_ChannelGroup_SetCallback, %function
#ifndef IMPLIB_EXPORT_SHIMS
  .hidden FMOD5_ChannelGroup_SetCallback
#endif
FMOD5_ChannelGroup_SetCallback:
  .cfi_startproc
  .cfi_def_cfa_offset 4  // Return address
  // add $0, %rsp  Why GDB fails to step over call without this?!
  // x86 has no support for PC-relative addressing so code is not very efficient.
  // We also trash EAX here (it's call-clobbered in cdecl).
  call __implib.x86.get_pc_thunk.ax
  addl $_GLOBAL_OFFSET_TABLE_, %eax
  movl 204+_libfmod_so_tramp_table@GOTOFF(%eax), %eax
  cmp $0, %eax
  je 2f
1:
  jmp *%eax
2:
  mov $51, %eax
  call _libfmod_so_save_regs_and_resolve
  jmp FMOD5_ChannelGroup_SetCallback
  .cfi_endproc
/*
 * Copyright 2019-2021 Yury Gribov
 *
 * The MIT License (MIT)
 *
 * Use of this source code is governed by MIT license that can be
 * found in the LICENSE.txt file.
 */

  .globl FMOD5_ChannelGroup_SetDSPIndex
  .p2align 4
  .type FMOD5_ChannelGroup_SetDSPIndex, %function
#ifndef IMPLIB_EXPORT_SHIMS
  .hidden FMOD5_ChannelGroup_SetDSPIndex
#endif
FMOD5_ChannelGroup_SetDSPIndex:
  .cfi_startproc
  .cfi_def_cfa_offset 4  // Return address
  // add $0, %rsp  Why GDB fails to step over call without this?!
  // x86 has no support for PC-relative addressing so code is not very efficient.
  // We also trash EAX here (it's call-clobbered in cdecl).
  call __implib.x86.get_pc_thunk.ax
  addl $_GLOBAL_OFFSET_TABLE_, %eax
  movl 208+_libfmod_so_tramp_table@GOTOFF(%eax), %eax
  cmp $0, %eax
  je 2f
1:
  jmp *%eax
2:
  mov $52, %eax
  call _libfmod_so_save_regs_and_resolve
  jmp FMOD5_ChannelGroup_SetDSPIndex
  .cfi_endproc
/*
 * Copyright 2019-2021 Yury Gribov
 *
 * The MIT License (MIT)
 *
 * Use of this source code is governed by MIT license that can be
 * found in the LICENSE.txt file.
 */

  .globl FMOD5_ChannelGroup_SetDelay
  .p2align 4
  .type FMOD5_ChannelGroup_SetDelay, %function
#ifndef IMPLIB_EXPORT_SHIMS
  .hidden FMOD5_ChannelGroup_SetDelay
#endif
FMOD5_ChannelGroup_SetDelay:
  .cfi_startproc
  .cfi_def_cfa_offset 4  // Return address
  // add $0, %rsp  Why GDB fails to step over call without this?!
  // x86 has no support for PC-relative addressing so code is not very efficient.
  // We also trash EAX here (it's call-clobbered in cdecl).
  call __implib.x86.get_pc_thunk.ax
  addl $_GLOBAL_OFFSET_TABLE_, %eax
  movl 212+_libfmod_so_tramp_table@GOTOFF(%eax), %eax
  cmp $0, %eax
  je 2f
1:
  jmp *%eax
2:
  mov $53, %eax
  call _libfmod_so_save_regs_and_resolve
  jmp FMOD5_ChannelGroup_SetDelay
  .cfi_endproc
/*
 * Copyright 2019-2021 Yury Gribov
 *
 * The MIT License (MIT)
 *
 * Use of this source code is governed by MIT license that can be
 * found in the LICENSE.txt file.
 */

  .globl FMOD5_ChannelGroup_SetFadePointRamp
  .p2align 4
  .type FMOD5_ChannelGroup_SetFadePointRamp, %function
#ifndef IMPLIB_EXPORT_SHIMS
  .hidden FMOD5_ChannelGroup_SetFadePointRamp
#endif
FMOD5_ChannelGroup_SetFadePointRamp:
  .cfi_startproc
  .cfi_def_cfa_offset 4  // Return address
  // add $0, %rsp  Why GDB fails to step over call without this?!
  // x86 has no support for PC-relative addressing so code is not very efficient.
  // We also trash EAX here (it's call-clobbered in cdecl).
  call __implib.x86.get_pc_thunk.ax
  addl $_GLOBAL_OFFSET_TABLE_, %eax
  movl 216+_libfmod_so_tramp_table@GOTOFF(%eax), %eax
  cmp $0, %eax
  je 2f
1:
  jmp *%eax
2:
  mov $54, %eax
  call _libfmod_so_save_regs_and_resolve
  jmp FMOD5_ChannelGroup_SetFadePointRamp
  .cfi_endproc
/*
 * Copyright 2019-2021 Yury Gribov
 *
 * The MIT License (MIT)
 *
 * Use of this source code is governed by MIT license that can be
 * found in the LICENSE.txt file.
 */

  .globl FMOD5_ChannelGroup_SetLowPassGain
  .p2align 4
  .type FMOD5_ChannelGroup_SetLowPassGain, %function
#ifndef IMPLIB_EXPORT_SHIMS
  .hidden FMOD5_ChannelGroup_SetLowPassGain
#endif
FMOD5_ChannelGroup_SetLowPassGain:
  .cfi_startproc
  .cfi_def_cfa_offset 4  // Return address
  // add $0, %rsp  Why GDB fails to step over call without this?!
  // x86 has no support for PC-relative addressing so code is not very efficient.
  // We also trash EAX here (it's call-clobbered in cdecl).
  call __implib.x86.get_pc_thunk.ax
  addl $_GLOBAL_OFFSET_TABLE_, %eax
  movl 220+_libfmod_so_tramp_table@GOTOFF(%eax), %eax
  cmp $0, %eax
  je 2f
1:
  jmp *%eax
2:
  mov $55, %eax
  call _libfmod_so_save_regs_and_resolve
  jmp FMOD5_ChannelGroup_SetLowPassGain
  .cfi_endproc
/*
 * Copyright 2019-2021 Yury Gribov
 *
 * The MIT License (MIT)
 *
 * Use of this source code is governed by MIT license that can be
 * found in the LICENSE.txt file.
 */

  .globl FMOD5_ChannelGroup_SetMixLevelsInput
  .p2align 4
  .type FMOD5_ChannelGroup_SetMixLevelsInput, %function
#ifndef IMPLIB_EXPORT_SHIMS
  .hidden FMOD5_ChannelGroup_SetMixLevelsInput
#endif
FMOD5_ChannelGroup_SetMixLevelsInput:
  .cfi_startproc
  .cfi_def_cfa_offset 4  // Return address
  // add $0, %rsp  Why GDB fails to step over call without this?!
  // x86 has no support for PC-relative addressing so code is not very efficient.
  // We also trash EAX here (it's call-clobbered in cdecl).
  call __implib.x86.get_pc_thunk.ax
  addl $_GLOBAL_OFFSET_TABLE_, %eax
  movl 224+_libfmod_so_tramp_table@GOTOFF(%eax), %eax
  cmp $0, %eax
  je 2f
1:
  jmp *%eax
2:
  mov $56, %eax
  call _libfmod_so_save_regs_and_resolve
  jmp FMOD5_ChannelGroup_SetMixLevelsInput
  .cfi_endproc
/*
 * Copyright 2019-2021 Yury Gribov
 *
 * The MIT License (MIT)
 *
 * Use of this source code is governed by MIT license that can be
 * found in the LICENSE.txt file.
 */

  .globl FMOD5_ChannelGroup_SetMixLevelsOutput
  .p2align 4
  .type FMOD5_ChannelGroup_SetMixLevelsOutput, %function
#ifndef IMPLIB_EXPORT_SHIMS
  .hidden FMOD5_ChannelGroup_SetMixLevelsOutput
#endif
FMOD5_ChannelGroup_SetMixLevelsOutput:
  .cfi_startproc
  .cfi_def_cfa_offset 4  // Return address
  // add $0, %rsp  Why GDB fails to step over call without this?!
  // x86 has no support for PC-relative addressing so code is not very efficient.
  // We also trash EAX here (it's call-clobbered in cdecl).
  call __implib.x86.get_pc_thunk.ax
  addl $_GLOBAL_OFFSET_TABLE_, %eax
  movl 228+_libfmod_so_tramp_table@GOTOFF(%eax), %eax
  cmp $0, %eax
  je 2f
1:
  jmp *%eax
2:
  mov $57, %eax
  call _libfmod_so_save_regs_and_resolve
  jmp FMOD5_ChannelGroup_SetMixLevelsOutput
  .cfi_endproc
/*
 * Copyright 2019-2021 Yury Gribov
 *
 * The MIT License (MIT)
 *
 * Use of this source code is governed by MIT license that can be
 * found in the LICENSE.txt file.
 */

  .globl FMOD5_ChannelGroup_SetMixMatrix
  .p2align 4
  .type FMOD5_ChannelGroup_SetMixMatrix, %function
#ifndef IMPLIB_EXPORT_SHIMS
  .hidden FMOD5_ChannelGroup_SetMixMatrix
#endif
FMOD5_ChannelGroup_SetMixMatrix:
  .cfi_startproc
  .cfi_def_cfa_offset 4  // Return address
  // add $0, %rsp  Why GDB fails to step over call without this?!
  // x86 has no support for PC-relative addressing so code is not very efficient.
  // We also trash EAX here (it's call-clobbered in cdecl).
  call __implib.x86.get_pc_thunk.ax
  addl $_GLOBAL_OFFSET_TABLE_, %eax
  movl 232+_libfmod_so_tramp_table@GOTOFF(%eax), %eax
  cmp $0, %eax
  je 2f
1:
  jmp *%eax
2:
  mov $58, %eax
  call _libfmod_so_save_regs_and_resolve
  jmp FMOD5_ChannelGroup_SetMixMatrix
  .cfi_endproc
/*
 * Copyright 2019-2021 Yury Gribov
 *
 * The MIT License (MIT)
 *
 * Use of this source code is governed by MIT license that can be
 * found in the LICENSE.txt file.
 */

  .globl FMOD5_ChannelGroup_SetMode
  .p2align 4
  .type FMOD5_ChannelGroup_SetMode, %function
#ifndef IMPLIB_EXPORT_SHIMS
  .hidden FMOD5_ChannelGroup_SetMode
#endif
FMOD5_ChannelGroup_SetMode:
  .cfi_startproc
  .cfi_def_cfa_offset 4  // Return address
  // add $0, %rsp  Why GDB fails to step over call without this?!
  // x86 has no support for PC-relative addressing so code is not very efficient.
  // We also trash EAX here (it's call-clobbered in cdecl).
  call __implib.x86.get_pc_thunk.ax
  addl $_GLOBAL_OFFSET_TABLE_, %eax
  movl 236+_libfmod_so_tramp_table@GOTOFF(%eax), %eax
  cmp $0, %eax
  je 2f
1:
  jmp *%eax
2:
  mov $59, %eax
  call _libfmod_so_save_regs_and_resolve
  jmp FMOD5_ChannelGroup_SetMode
  .cfi_endproc
/*
 * Copyright 2019-2021 Yury Gribov
 *
 * The MIT License (MIT)
 *
 * Use of this source code is governed by MIT license that can be
 * found in the LICENSE.txt file.
 */

  .globl FMOD5_ChannelGroup_SetMute
  .p2align 4
  .type FMOD5_ChannelGroup_SetMute, %function
#ifndef IMPLIB_EXPORT_SHIMS
  .hidden FMOD5_ChannelGroup_SetMute
#endif
FMOD5_ChannelGroup_SetMute:
  .cfi_startproc
  .cfi_def_cfa_offset 4  // Return address
  // add $0, %rsp  Why GDB fails to step over call without this?!
  // x86 has no support for PC-relative addressing so code is not very efficient.
  // We also trash EAX here (it's call-clobbered in cdecl).
  call __implib.x86.get_pc_thunk.ax
  addl $_GLOBAL_OFFSET_TABLE_, %eax
  movl 240+_libfmod_so_tramp_table@GOTOFF(%eax), %eax
  cmp $0, %eax
  je 2f
1:
  jmp *%eax
2:
  mov $60, %eax
  call _libfmod_so_save_regs_and_resolve
  jmp FMOD5_ChannelGroup_SetMute
  .cfi_endproc
/*
 * Copyright 2019-2021 Yury Gribov
 *
 * The MIT License (MIT)
 *
 * Use of this source code is governed by MIT license that can be
 * found in the LICENSE.txt file.
 */

  .globl FMOD5_ChannelGroup_SetPan
  .p2align 4
  .type FMOD5_ChannelGroup_SetPan, %function
#ifndef IMPLIB_EXPORT_SHIMS
  .hidden FMOD5_ChannelGroup_SetPan
#endif
FMOD5_ChannelGroup_SetPan:
  .cfi_startproc
  .cfi_def_cfa_offset 4  // Return address
  // add $0, %rsp  Why GDB fails to step over call without this?!
  // x86 has no support for PC-relative addressing so code is not very efficient.
  // We also trash EAX here (it's call-clobbered in cdecl).
  call __implib.x86.get_pc_thunk.ax
  addl $_GLOBAL_OFFSET_TABLE_, %eax
  movl 244+_libfmod_so_tramp_table@GOTOFF(%eax), %eax
  cmp $0, %eax
  je 2f
1:
  jmp *%eax
2:
  mov $61, %eax
  call _libfmod_so_save_regs_and_resolve
  jmp FMOD5_ChannelGroup_SetPan
  .cfi_endproc
/*
 * Copyright 2019-2021 Yury Gribov
 *
 * The MIT License (MIT)
 *
 * Use of this source code is governed by MIT license that can be
 * found in the LICENSE.txt file.
 */

  .globl FMOD5_ChannelGroup_SetPaused
  .p2align 4
  .type FMOD5_ChannelGroup_SetPaused, %function
#ifndef IMPLIB_EXPORT_SHIMS
  .hidden FMOD5_ChannelGroup_SetPaused
#endif
FMOD5_ChannelGroup_SetPaused:
  .cfi_startproc
  .cfi_def_cfa_offset 4  // Return address
  // add $0, %rsp  Why GDB fails to step over call without this?!
  // x86 has no support for PC-relative addressing so code is not very efficient.
  // We also trash EAX here (it's call-clobbered in cdecl).
  call __implib.x86.get_pc_thunk.ax
  addl $_GLOBAL_OFFSET_TABLE_, %eax
  movl 248+_libfmod_so_tramp_table@GOTOFF(%eax), %eax
  cmp $0, %eax
  je 2f
1:
  jmp *%eax
2:
  mov $62, %eax
  call _libfmod_so_save_regs_and_resolve
  jmp FMOD5_ChannelGroup_SetPaused
  .cfi_endproc
/*
 * Copyright 2019-2021 Yury Gribov
 *
 * The MIT License (MIT)
 *
 * Use of this source code is governed by MIT license that can be
 * found in the LICENSE.txt file.
 */

  .globl FMOD5_ChannelGroup_SetPitch
  .p2align 4
  .type FMOD5_ChannelGroup_SetPitch, %function
#ifndef IMPLIB_EXPORT_SHIMS
  .hidden FMOD5_ChannelGroup_SetPitch
#endif
FMOD5_ChannelGroup_SetPitch:
  .cfi_startproc
  .cfi_def_cfa_offset 4  // Return address
  // add $0, %rsp  Why GDB fails to step over call without this?!
  // x86 has no support for PC-relative addressing so code is not very efficient.
  // We also trash EAX here (it's call-clobbered in cdecl).
  call __implib.x86.get_pc_thunk.ax
  addl $_GLOBAL_OFFSET_TABLE_, %eax
  movl 252+_libfmod_so_tramp_table@GOTOFF(%eax), %eax
  cmp $0, %eax
  je 2f
1:
  jmp *%eax
2:
  mov $63, %eax
  call _libfmod_so_save_regs_and_resolve
  jmp FMOD5_ChannelGroup_SetPitch
  .cfi_endproc
/*
 * Copyright 2019-2021 Yury Gribov
 *
 * The MIT License (MIT)
 *
 * Use of this source code is governed by MIT license that can be
 * found in the LICENSE.txt file.
 */

  .globl FMOD5_ChannelGroup_SetReverbProperties
  .p2align 4
  .type FMOD5_ChannelGroup_SetReverbProperties, %function
#ifndef IMPLIB_EXPORT_SHIMS
  .hidden FMOD5_ChannelGroup_SetReverbProperties
#endif
FMOD5_ChannelGroup_SetReverbProperties:
  .cfi_startproc
  .cfi_def_cfa_offset 4  // Return address
  // add $0, %rsp  Why GDB fails to step over call without this?!
  // x86 has no support for PC-relative addressing so code is not very efficient.
  // We also trash EAX here (it's call-clobbered in cdecl).
  call __implib.x86.get_pc_thunk.ax
  addl $_GLOBAL_OFFSET_TABLE_, %eax
  movl 256+_libfmod_so_tramp_table@GOTOFF(%eax), %eax
  cmp $0, %eax
  je 2f
1:
  jmp *%eax
2:
  mov $64, %eax
  call _libfmod_so_save_regs_and_resolve
  jmp FMOD5_ChannelGroup_SetReverbProperties
  .cfi_endproc
/*
 * Copyright 2019-2021 Yury Gribov
 *
 * The MIT License (MIT)
 *
 * Use of this source code is governed by MIT license that can be
 * found in the LICENSE.txt file.
 */

  .globl FMOD5_ChannelGroup_SetUserData
  .p2align 4
  .type FMOD5_ChannelGroup_SetUserData, %function
#ifndef IMPLIB_EXPORT_SHIMS
  .hidden FMOD5_ChannelGroup_SetUserData
#endif
FMOD5_ChannelGroup_SetUserData:
  .cfi_startproc
  .cfi_def_cfa_offset 4  // Return address
  // add $0, %rsp  Why GDB fails to step over call without this?!
  // x86 has no support for PC-relative addressing so code is not very efficient.
  // We also trash EAX here (it's call-clobbered in cdecl).
  call __implib.x86.get_pc_thunk.ax
  addl $_GLOBAL_OFFSET_TABLE_, %eax
  movl 260+_libfmod_so_tramp_table@GOTOFF(%eax), %eax
  cmp $0, %eax
  je 2f
1:
  jmp *%eax
2:
  mov $65, %eax
  call _libfmod_so_save_regs_and_resolve
  jmp FMOD5_ChannelGroup_SetUserData
  .cfi_endproc
/*
 * Copyright 2019-2021 Yury Gribov
 *
 * The MIT License (MIT)
 *
 * Use of this source code is governed by MIT license that can be
 * found in the LICENSE.txt file.
 */

  .globl FMOD5_ChannelGroup_SetVolume
  .p2align 4
  .type FMOD5_ChannelGroup_SetVolume, %function
#ifndef IMPLIB_EXPORT_SHIMS
  .hidden FMOD5_ChannelGroup_SetVolume
#endif
FMOD5_ChannelGroup_SetVolume:
  .cfi_startproc
  .cfi_def_cfa_offset 4  // Return address
  // add $0, %rsp  Why GDB fails to step over call without this?!
  // x86 has no support for PC-relative addressing so code is not very efficient.
  // We also trash EAX here (it's call-clobbered in cdecl).
  call __implib.x86.get_pc_thunk.ax
  addl $_GLOBAL_OFFSET_TABLE_, %eax
  movl 264+_libfmod_so_tramp_table@GOTOFF(%eax), %eax
  cmp $0, %eax
  je 2f
1:
  jmp *%eax
2:
  mov $66, %eax
  call _libfmod_so_save_regs_and_resolve
  jmp FMOD5_ChannelGroup_SetVolume
  .cfi_endproc
/*
 * Copyright 2019-2021 Yury Gribov
 *
 * The MIT License (MIT)
 *
 * Use of this source code is governed by MIT license that can be
 * found in the LICENSE.txt file.
 */

  .globl FMOD5_ChannelGroup_SetVolumeRamp
  .p2align 4
  .type FMOD5_ChannelGroup_SetVolumeRamp, %function
#ifndef IMPLIB_EXPORT_SHIMS
  .hidden FMOD5_ChannelGroup_SetVolumeRamp
#endif
FMOD5_ChannelGroup_SetVolumeRamp:
  .cfi_startproc
  .cfi_def_cfa_offset 4  // Return address
  // add $0, %rsp  Why GDB fails to step over call without this?!
  // x86 has no support for PC-relative addressing so code is not very efficient.
  // We also trash EAX here (it's call-clobbered in cdecl).
  call __implib.x86.get_pc_thunk.ax
  addl $_GLOBAL_OFFSET_TABLE_, %eax
  movl 268+_libfmod_so_tramp_table@GOTOFF(%eax), %eax
  cmp $0, %eax
  je 2f
1:
  jmp *%eax
2:
  mov $67, %eax
  call _libfmod_so_save_regs_and_resolve
  jmp FMOD5_ChannelGroup_SetVolumeRamp
  .cfi_endproc
/*
 * Copyright 2019-2021 Yury Gribov
 *
 * The MIT License (MIT)
 *
 * Use of this source code is governed by MIT license that can be
 * found in the LICENSE.txt file.
 */

  .globl FMOD5_ChannelGroup_Stop
  .p2align 4
  .type FMOD5_ChannelGroup_Stop, %function
#ifndef IMPLIB_EXPORT_SHIMS
  .hidden FMOD5_ChannelGroup_Stop
#endif
FMOD5_ChannelGroup_Stop:
  .cfi_startproc
  .cfi_def_cfa_offset 4  // Return address
  // add $0, %rsp  Why GDB fails to step over call without this?!
  // x86 has no support for PC-relative addressing so code is not very efficient.
  // We also trash EAX here (it's call-clobbered in cdecl).
  call __implib.x86.get_pc_thunk.ax
  addl $_GLOBAL_OFFSET_TABLE_, %eax
  movl 272+_libfmod_so_tramp_table@GOTOFF(%eax), %eax
  cmp $0, %eax
  je 2f
1:
  jmp *%eax
2:
  mov $68, %eax
  call _libfmod_so_save_regs_and_resolve
  jmp FMOD5_ChannelGroup_Stop
  .cfi_endproc
/*
 * Copyright 2019-2021 Yury Gribov
 *
 * The MIT License (MIT)
 *
 * Use of this source code is governed by MIT license that can be
 * found in the LICENSE.txt file.
 */

  .globl FMOD5_Channel_AddDSP
  .p2align 4
  .type FMOD5_Channel_AddDSP, %function
#ifndef IMPLIB_EXPORT_SHIMS
  .hidden FMOD5_Channel_AddDSP
#endif
FMOD5_Channel_AddDSP:
  .cfi_startproc
  .cfi_def_cfa_offset 4  // Return address
  // add $0, %rsp  Why GDB fails to step over call without this?!
  // x86 has no support for PC-relative addressing so code is not very efficient.
  // We also trash EAX here (it's call-clobbered in cdecl).
  call __implib.x86.get_pc_thunk.ax
  addl $_GLOBAL_OFFSET_TABLE_, %eax
  movl 276+_libfmod_so_tramp_table@GOTOFF(%eax), %eax
  cmp $0, %eax
  je 2f
1:
  jmp *%eax
2:
  mov $69, %eax
  call _libfmod_so_save_regs_and_resolve
  jmp FMOD5_Channel_AddDSP
  .cfi_endproc
/*
 * Copyright 2019-2021 Yury Gribov
 *
 * The MIT License (MIT)
 *
 * Use of this source code is governed by MIT license that can be
 * found in the LICENSE.txt file.
 */

  .globl FMOD5_Channel_AddFadePoint
  .p2align 4
  .type FMOD5_Channel_AddFadePoint, %function
#ifndef IMPLIB_EXPORT_SHIMS
  .hidden FMOD5_Channel_AddFadePoint
#endif
FMOD5_Channel_AddFadePoint:
  .cfi_startproc
  .cfi_def_cfa_offset 4  // Return address
  // add $0, %rsp  Why GDB fails to step over call without this?!
  // x86 has no support for PC-relative addressing so code is not very efficient.
  // We also trash EAX here (it's call-clobbered in cdecl).
  call __implib.x86.get_pc_thunk.ax
  addl $_GLOBAL_OFFSET_TABLE_, %eax
  movl 280+_libfmod_so_tramp_table@GOTOFF(%eax), %eax
  cmp $0, %eax
  je 2f
1:
  jmp *%eax
2:
  mov $70, %eax
  call _libfmod_so_save_regs_and_resolve
  jmp FMOD5_Channel_AddFadePoint
  .cfi_endproc
/*
 * Copyright 2019-2021 Yury Gribov
 *
 * The MIT License (MIT)
 *
 * Use of this source code is governed by MIT license that can be
 * found in the LICENSE.txt file.
 */

  .globl FMOD5_Channel_Get3DAttributes
  .p2align 4
  .type FMOD5_Channel_Get3DAttributes, %function
#ifndef IMPLIB_EXPORT_SHIMS
  .hidden FMOD5_Channel_Get3DAttributes
#endif
FMOD5_Channel_Get3DAttributes:
  .cfi_startproc
  .cfi_def_cfa_offset 4  // Return address
  // add $0, %rsp  Why GDB fails to step over call without this?!
  // x86 has no support for PC-relative addressing so code is not very efficient.
  // We also trash EAX here (it's call-clobbered in cdecl).
  call __implib.x86.get_pc_thunk.ax
  addl $_GLOBAL_OFFSET_TABLE_, %eax
  movl 284+_libfmod_so_tramp_table@GOTOFF(%eax), %eax
  cmp $0, %eax
  je 2f
1:
  jmp *%eax
2:
  mov $71, %eax
  call _libfmod_so_save_regs_and_resolve
  jmp FMOD5_Channel_Get3DAttributes
  .cfi_endproc
/*
 * Copyright 2019-2021 Yury Gribov
 *
 * The MIT License (MIT)
 *
 * Use of this source code is governed by MIT license that can be
 * found in the LICENSE.txt file.
 */

  .globl FMOD5_Channel_Get3DConeOrientation
  .p2align 4
  .type FMOD5_Channel_Get3DConeOrientation, %function
#ifndef IMPLIB_EXPORT_SHIMS
  .hidden FMOD5_Channel_Get3DConeOrientation
#endif
FMOD5_Channel_Get3DConeOrientation:
  .cfi_startproc
  .cfi_def_cfa_offset 4  // Return address
  // add $0, %rsp  Why GDB fails to step over call without this?!
  // x86 has no support for PC-relative addressing so code is not very efficient.
  // We also trash EAX here (it's call-clobbered in cdecl).
  call __implib.x86.get_pc_thunk.ax
  addl $_GLOBAL_OFFSET_TABLE_, %eax
  movl 288+_libfmod_so_tramp_table@GOTOFF(%eax), %eax
  cmp $0, %eax
  je 2f
1:
  jmp *%eax
2:
  mov $72, %eax
  call _libfmod_so_save_regs_and_resolve
  jmp FMOD5_Channel_Get3DConeOrientation
  .cfi_endproc
/*
 * Copyright 2019-2021 Yury Gribov
 *
 * The MIT License (MIT)
 *
 * Use of this source code is governed by MIT license that can be
 * found in the LICENSE.txt file.
 */

  .globl FMOD5_Channel_Get3DConeSettings
  .p2align 4
  .type FMOD5_Channel_Get3DConeSettings, %function
#ifndef IMPLIB_EXPORT_SHIMS
  .hidden FMOD5_Channel_Get3DConeSettings
#endif
FMOD5_Channel_Get3DConeSettings:
  .cfi_startproc
  .cfi_def_cfa_offset 4  // Return address
  // add $0, %rsp  Why GDB fails to step over call without this?!
  // x86 has no support for PC-relative addressing so code is not very efficient.
  // We also trash EAX here (it's call-clobbered in cdecl).
  call __implib.x86.get_pc_thunk.ax
  addl $_GLOBAL_OFFSET_TABLE_, %eax
  movl 292+_libfmod_so_tramp_table@GOTOFF(%eax), %eax
  cmp $0, %eax
  je 2f
1:
  jmp *%eax
2:
  mov $73, %eax
  call _libfmod_so_save_regs_and_resolve
  jmp FMOD5_Channel_Get3DConeSettings
  .cfi_endproc
/*
 * Copyright 2019-2021 Yury Gribov
 *
 * The MIT License (MIT)
 *
 * Use of this source code is governed by MIT license that can be
 * found in the LICENSE.txt file.
 */

  .globl FMOD5_Channel_Get3DCustomRolloff
  .p2align 4
  .type FMOD5_Channel_Get3DCustomRolloff, %function
#ifndef IMPLIB_EXPORT_SHIMS
  .hidden FMOD5_Channel_Get3DCustomRolloff
#endif
FMOD5_Channel_Get3DCustomRolloff:
  .cfi_startproc
  .cfi_def_cfa_offset 4  // Return address
  // add $0, %rsp  Why GDB fails to step over call without this?!
  // x86 has no support for PC-relative addressing so code is not very efficient.
  // We also trash EAX here (it's call-clobbered in cdecl).
  call __implib.x86.get_pc_thunk.ax
  addl $_GLOBAL_OFFSET_TABLE_, %eax
  movl 296+_libfmod_so_tramp_table@GOTOFF(%eax), %eax
  cmp $0, %eax
  je 2f
1:
  jmp *%eax
2:
  mov $74, %eax
  call _libfmod_so_save_regs_and_resolve
  jmp FMOD5_Channel_Get3DCustomRolloff
  .cfi_endproc
/*
 * Copyright 2019-2021 Yury Gribov
 *
 * The MIT License (MIT)
 *
 * Use of this source code is governed by MIT license that can be
 * found in the LICENSE.txt file.
 */

  .globl FMOD5_Channel_Get3DDistanceFilter
  .p2align 4
  .type FMOD5_Channel_Get3DDistanceFilter, %function
#ifndef IMPLIB_EXPORT_SHIMS
  .hidden FMOD5_Channel_Get3DDistanceFilter
#endif
FMOD5_Channel_Get3DDistanceFilter:
  .cfi_startproc
  .cfi_def_cfa_offset 4  // Return address
  // add $0, %rsp  Why GDB fails to step over call without this?!
  // x86 has no support for PC-relative addressing so code is not very efficient.
  // We also trash EAX here (it's call-clobbered in cdecl).
  call __implib.x86.get_pc_thunk.ax
  addl $_GLOBAL_OFFSET_TABLE_, %eax
  movl 300+_libfmod_so_tramp_table@GOTOFF(%eax), %eax
  cmp $0, %eax
  je 2f
1:
  jmp *%eax
2:
  mov $75, %eax
  call _libfmod_so_save_regs_and_resolve
  jmp FMOD5_Channel_Get3DDistanceFilter
  .cfi_endproc
/*
 * Copyright 2019-2021 Yury Gribov
 *
 * The MIT License (MIT)
 *
 * Use of this source code is governed by MIT license that can be
 * found in the LICENSE.txt file.
 */

  .globl FMOD5_Channel_Get3DDopplerLevel
  .p2align 4
  .type FMOD5_Channel_Get3DDopplerLevel, %function
#ifndef IMPLIB_EXPORT_SHIMS
  .hidden FMOD5_Channel_Get3DDopplerLevel
#endif
FMOD5_Channel_Get3DDopplerLevel:
  .cfi_startproc
  .cfi_def_cfa_offset 4  // Return address
  // add $0, %rsp  Why GDB fails to step over call without this?!
  // x86 has no support for PC-relative addressing so code is not very efficient.
  // We also trash EAX here (it's call-clobbered in cdecl).
  call __implib.x86.get_pc_thunk.ax
  addl $_GLOBAL_OFFSET_TABLE_, %eax
  movl 304+_libfmod_so_tramp_table@GOTOFF(%eax), %eax
  cmp $0, %eax
  je 2f
1:
  jmp *%eax
2:
  mov $76, %eax
  call _libfmod_so_save_regs_and_resolve
  jmp FMOD5_Channel_Get3DDopplerLevel
  .cfi_endproc
/*
 * Copyright 2019-2021 Yury Gribov
 *
 * The MIT License (MIT)
 *
 * Use of this source code is governed by MIT license that can be
 * found in the LICENSE.txt file.
 */

  .globl FMOD5_Channel_Get3DLevel
  .p2align 4
  .type FMOD5_Channel_Get3DLevel, %function
#ifndef IMPLIB_EXPORT_SHIMS
  .hidden FMOD5_Channel_Get3DLevel
#endif
FMOD5_Channel_Get3DLevel:
  .cfi_startproc
  .cfi_def_cfa_offset 4  // Return address
  // add $0, %rsp  Why GDB fails to step over call without this?!
  // x86 has no support for PC-relative addressing so code is not very efficient.
  // We also trash EAX here (it's call-clobbered in cdecl).
  call __implib.x86.get_pc_thunk.ax
  addl $_GLOBAL_OFFSET_TABLE_, %eax
  movl 308+_libfmod_so_tramp_table@GOTOFF(%eax), %eax
  cmp $0, %eax
  je 2f
1:
  jmp *%eax
2:
  mov $77, %eax
  call _libfmod_so_save_regs_and_resolve
  jmp FMOD5_Channel_Get3DLevel
  .cfi_endproc
/*
 * Copyright 2019-2021 Yury Gribov
 *
 * The MIT License (MIT)
 *
 * Use of this source code is governed by MIT license that can be
 * found in the LICENSE.txt file.
 */

  .globl FMOD5_Channel_Get3DMinMaxDistance
  .p2align 4
  .type FMOD5_Channel_Get3DMinMaxDistance, %function
#ifndef IMPLIB_EXPORT_SHIMS
  .hidden FMOD5_Channel_Get3DMinMaxDistance
#endif
FMOD5_Channel_Get3DMinMaxDistance:
  .cfi_startproc
  .cfi_def_cfa_offset 4  // Return address
  // add $0, %rsp  Why GDB fails to step over call without this?!
  // x86 has no support for PC-relative addressing so code is not very efficient.
  // We also trash EAX here (it's call-clobbered in cdecl).
  call __implib.x86.get_pc_thunk.ax
  addl $_GLOBAL_OFFSET_TABLE_, %eax
  movl 312+_libfmod_so_tramp_table@GOTOFF(%eax), %eax
  cmp $0, %eax
  je 2f
1:
  jmp *%eax
2:
  mov $78, %eax
  call _libfmod_so_save_regs_and_resolve
  jmp FMOD5_Channel_Get3DMinMaxDistance
  .cfi_endproc
/*
 * Copyright 2019-2021 Yury Gribov
 *
 * The MIT License (MIT)
 *
 * Use of this source code is governed by MIT license that can be
 * found in the LICENSE.txt file.
 */

  .globl FMOD5_Channel_Get3DOcclusion
  .p2align 4
  .type FMOD5_Channel_Get3DOcclusion, %function
#ifndef IMPLIB_EXPORT_SHIMS
  .hidden FMOD5_Channel_Get3DOcclusion
#endif
FMOD5_Channel_Get3DOcclusion:
  .cfi_startproc
  .cfi_def_cfa_offset 4  // Return address
  // add $0, %rsp  Why GDB fails to step over call without this?!
  // x86 has no support for PC-relative addressing so code is not very efficient.
  // We also trash EAX here (it's call-clobbered in cdecl).
  call __implib.x86.get_pc_thunk.ax
  addl $_GLOBAL_OFFSET_TABLE_, %eax
  movl 316+_libfmod_so_tramp_table@GOTOFF(%eax), %eax
  cmp $0, %eax
  je 2f
1:
  jmp *%eax
2:
  mov $79, %eax
  call _libfmod_so_save_regs_and_resolve
  jmp FMOD5_Channel_Get3DOcclusion
  .cfi_endproc
/*
 * Copyright 2019-2021 Yury Gribov
 *
 * The MIT License (MIT)
 *
 * Use of this source code is governed by MIT license that can be
 * found in the LICENSE.txt file.
 */

  .globl FMOD5_Channel_Get3DSpread
  .p2align 4
  .type FMOD5_Channel_Get3DSpread, %function
#ifndef IMPLIB_EXPORT_SHIMS
  .hidden FMOD5_Channel_Get3DSpread
#endif
FMOD5_Channel_Get3DSpread:
  .cfi_startproc
  .cfi_def_cfa_offset 4  // Return address
  // add $0, %rsp  Why GDB fails to step over call without this?!
  // x86 has no support for PC-relative addressing so code is not very efficient.
  // We also trash EAX here (it's call-clobbered in cdecl).
  call __implib.x86.get_pc_thunk.ax
  addl $_GLOBAL_OFFSET_TABLE_, %eax
  movl 320+_libfmod_so_tramp_table@GOTOFF(%eax), %eax
  cmp $0, %eax
  je 2f
1:
  jmp *%eax
2:
  mov $80, %eax
  call _libfmod_so_save_regs_and_resolve
  jmp FMOD5_Channel_Get3DSpread
  .cfi_endproc
/*
 * Copyright 2019-2021 Yury Gribov
 *
 * The MIT License (MIT)
 *
 * Use of this source code is governed by MIT license that can be
 * found in the LICENSE.txt file.
 */

  .globl FMOD5_Channel_GetAudibility
  .p2align 4
  .type FMOD5_Channel_GetAudibility, %function
#ifndef IMPLIB_EXPORT_SHIMS
  .hidden FMOD5_Channel_GetAudibility
#endif
FMOD5_Channel_GetAudibility:
  .cfi_startproc
  .cfi_def_cfa_offset 4  // Return address
  // add $0, %rsp  Why GDB fails to step over call without this?!
  // x86 has no support for PC-relative addressing so code is not very efficient.
  // We also trash EAX here (it's call-clobbered in cdecl).
  call __implib.x86.get_pc_thunk.ax
  addl $_GLOBAL_OFFSET_TABLE_, %eax
  movl 324+_libfmod_so_tramp_table@GOTOFF(%eax), %eax
  cmp $0, %eax
  je 2f
1:
  jmp *%eax
2:
  mov $81, %eax
  call _libfmod_so_save_regs_and_resolve
  jmp FMOD5_Channel_GetAudibility
  .cfi_endproc
/*
 * Copyright 2019-2021 Yury Gribov
 *
 * The MIT License (MIT)
 *
 * Use of this source code is governed by MIT license that can be
 * found in the LICENSE.txt file.
 */

  .globl FMOD5_Channel_GetChannelGroup
  .p2align 4
  .type FMOD5_Channel_GetChannelGroup, %function
#ifndef IMPLIB_EXPORT_SHIMS
  .hidden FMOD5_Channel_GetChannelGroup
#endif
FMOD5_Channel_GetChannelGroup:
  .cfi_startproc
  .cfi_def_cfa_offset 4  // Return address
  // add $0, %rsp  Why GDB fails to step over call without this?!
  // x86 has no support for PC-relative addressing so code is not very efficient.
  // We also trash EAX here (it's call-clobbered in cdecl).
  call __implib.x86.get_pc_thunk.ax
  addl $_GLOBAL_OFFSET_TABLE_, %eax
  movl 328+_libfmod_so_tramp_table@GOTOFF(%eax), %eax
  cmp $0, %eax
  je 2f
1:
  jmp *%eax
2:
  mov $82, %eax
  call _libfmod_so_save_regs_and_resolve
  jmp FMOD5_Channel_GetChannelGroup
  .cfi_endproc
/*
 * Copyright 2019-2021 Yury Gribov
 *
 * The MIT License (MIT)
 *
 * Use of this source code is governed by MIT license that can be
 * found in the LICENSE.txt file.
 */

  .globl FMOD5_Channel_GetCurrentSound
  .p2align 4
  .type FMOD5_Channel_GetCurrentSound, %function
#ifndef IMPLIB_EXPORT_SHIMS
  .hidden FMOD5_Channel_GetCurrentSound
#endif
FMOD5_Channel_GetCurrentSound:
  .cfi_startproc
  .cfi_def_cfa_offset 4  // Return address
  // add $0, %rsp  Why GDB fails to step over call without this?!
  // x86 has no support for PC-relative addressing so code is not very efficient.
  // We also trash EAX here (it's call-clobbered in cdecl).
  call __implib.x86.get_pc_thunk.ax
  addl $_GLOBAL_OFFSET_TABLE_, %eax
  movl 332+_libfmod_so_tramp_table@GOTOFF(%eax), %eax
  cmp $0, %eax
  je 2f
1:
  jmp *%eax
2:
  mov $83, %eax
  call _libfmod_so_save_regs_and_resolve
  jmp FMOD5_Channel_GetCurrentSound
  .cfi_endproc
/*
 * Copyright 2019-2021 Yury Gribov
 *
 * The MIT License (MIT)
 *
 * Use of this source code is governed by MIT license that can be
 * found in the LICENSE.txt file.
 */

  .globl FMOD5_Channel_GetDSP
  .p2align 4
  .type FMOD5_Channel_GetDSP, %function
#ifndef IMPLIB_EXPORT_SHIMS
  .hidden FMOD5_Channel_GetDSP
#endif
FMOD5_Channel_GetDSP:
  .cfi_startproc
  .cfi_def_cfa_offset 4  // Return address
  // add $0, %rsp  Why GDB fails to step over call without this?!
  // x86 has no support for PC-relative addressing so code is not very efficient.
  // We also trash EAX here (it's call-clobbered in cdecl).
  call __implib.x86.get_pc_thunk.ax
  addl $_GLOBAL_OFFSET_TABLE_, %eax
  movl 336+_libfmod_so_tramp_table@GOTOFF(%eax), %eax
  cmp $0, %eax
  je 2f
1:
  jmp *%eax
2:
  mov $84, %eax
  call _libfmod_so_save_regs_and_resolve
  jmp FMOD5_Channel_GetDSP
  .cfi_endproc
/*
 * Copyright 2019-2021 Yury Gribov
 *
 * The MIT License (MIT)
 *
 * Use of this source code is governed by MIT license that can be
 * found in the LICENSE.txt file.
 */

  .globl FMOD5_Channel_GetDSPClock
  .p2align 4
  .type FMOD5_Channel_GetDSPClock, %function
#ifndef IMPLIB_EXPORT_SHIMS
  .hidden FMOD5_Channel_GetDSPClock
#endif
FMOD5_Channel_GetDSPClock:
  .cfi_startproc
  .cfi_def_cfa_offset 4  // Return address
  // add $0, %rsp  Why GDB fails to step over call without this?!
  // x86 has no support for PC-relative addressing so code is not very efficient.
  // We also trash EAX here (it's call-clobbered in cdecl).
  call __implib.x86.get_pc_thunk.ax
  addl $_GLOBAL_OFFSET_TABLE_, %eax
  movl 340+_libfmod_so_tramp_table@GOTOFF(%eax), %eax
  cmp $0, %eax
  je 2f
1:
  jmp *%eax
2:
  mov $85, %eax
  call _libfmod_so_save_regs_and_resolve
  jmp FMOD5_Channel_GetDSPClock
  .cfi_endproc
/*
 * Copyright 2019-2021 Yury Gribov
 *
 * The MIT License (MIT)
 *
 * Use of this source code is governed by MIT license that can be
 * found in the LICENSE.txt file.
 */

  .globl FMOD5_Channel_GetDSPIndex
  .p2align 4
  .type FMOD5_Channel_GetDSPIndex, %function
#ifndef IMPLIB_EXPORT_SHIMS
  .hidden FMOD5_Channel_GetDSPIndex
#endif
FMOD5_Channel_GetDSPIndex:
  .cfi_startproc
  .cfi_def_cfa_offset 4  // Return address
  // add $0, %rsp  Why GDB fails to step over call without this?!
  // x86 has no support for PC-relative addressing so code is not very efficient.
  // We also trash EAX here (it's call-clobbered in cdecl).
  call __implib.x86.get_pc_thunk.ax
  addl $_GLOBAL_OFFSET_TABLE_, %eax
  movl 344+_libfmod_so_tramp_table@GOTOFF(%eax), %eax
  cmp $0, %eax
  je 2f
1:
  jmp *%eax
2:
  mov $86, %eax
  call _libfmod_so_save_regs_and_resolve
  jmp FMOD5_Channel_GetDSPIndex
  .cfi_endproc
/*
 * Copyright 2019-2021 Yury Gribov
 *
 * The MIT License (MIT)
 *
 * Use of this source code is governed by MIT license that can be
 * found in the LICENSE.txt file.
 */

  .globl FMOD5_Channel_GetDelay
  .p2align 4
  .type FMOD5_Channel_GetDelay, %function
#ifndef IMPLIB_EXPORT_SHIMS
  .hidden FMOD5_Channel_GetDelay
#endif
FMOD5_Channel_GetDelay:
  .cfi_startproc
  .cfi_def_cfa_offset 4  // Return address
  // add $0, %rsp  Why GDB fails to step over call without this?!
  // x86 has no support for PC-relative addressing so code is not very efficient.
  // We also trash EAX here (it's call-clobbered in cdecl).
  call __implib.x86.get_pc_thunk.ax
  addl $_GLOBAL_OFFSET_TABLE_, %eax
  movl 348+_libfmod_so_tramp_table@GOTOFF(%eax), %eax
  cmp $0, %eax
  je 2f
1:
  jmp *%eax
2:
  mov $87, %eax
  call _libfmod_so_save_regs_and_resolve
  jmp FMOD5_Channel_GetDelay
  .cfi_endproc
/*
 * Copyright 2019-2021 Yury Gribov
 *
 * The MIT License (MIT)
 *
 * Use of this source code is governed by MIT license that can be
 * found in the LICENSE.txt file.
 */

  .globl FMOD5_Channel_GetFadePoints
  .p2align 4
  .type FMOD5_Channel_GetFadePoints, %function
#ifndef IMPLIB_EXPORT_SHIMS
  .hidden FMOD5_Channel_GetFadePoints
#endif
FMOD5_Channel_GetFadePoints:
  .cfi_startproc
  .cfi_def_cfa_offset 4  // Return address
  // add $0, %rsp  Why GDB fails to step over call without this?!
  // x86 has no support for PC-relative addressing so code is not very efficient.
  // We also trash EAX here (it's call-clobbered in cdecl).
  call __implib.x86.get_pc_thunk.ax
  addl $_GLOBAL_OFFSET_TABLE_, %eax
  movl 352+_libfmod_so_tramp_table@GOTOFF(%eax), %eax
  cmp $0, %eax
  je 2f
1:
  jmp *%eax
2:
  mov $88, %eax
  call _libfmod_so_save_regs_and_resolve
  jmp FMOD5_Channel_GetFadePoints
  .cfi_endproc
/*
 * Copyright 2019-2021 Yury Gribov
 *
 * The MIT License (MIT)
 *
 * Use of this source code is governed by MIT license that can be
 * found in the LICENSE.txt file.
 */

  .globl FMOD5_Channel_GetFrequency
  .p2align 4
  .type FMOD5_Channel_GetFrequency, %function
#ifndef IMPLIB_EXPORT_SHIMS
  .hidden FMOD5_Channel_GetFrequency
#endif
FMOD5_Channel_GetFrequency:
  .cfi_startproc
  .cfi_def_cfa_offset 4  // Return address
  // add $0, %rsp  Why GDB fails to step over call without this?!
  // x86 has no support for PC-relative addressing so code is not very efficient.
  // We also trash EAX here (it's call-clobbered in cdecl).
  call __implib.x86.get_pc_thunk.ax
  addl $_GLOBAL_OFFSET_TABLE_, %eax
  movl 356+_libfmod_so_tramp_table@GOTOFF(%eax), %eax
  cmp $0, %eax
  je 2f
1:
  jmp *%eax
2:
  mov $89, %eax
  call _libfmod_so_save_regs_and_resolve
  jmp FMOD5_Channel_GetFrequency
  .cfi_endproc
/*
 * Copyright 2019-2021 Yury Gribov
 *
 * The MIT License (MIT)
 *
 * Use of this source code is governed by MIT license that can be
 * found in the LICENSE.txt file.
 */

  .globl FMOD5_Channel_GetIndex
  .p2align 4
  .type FMOD5_Channel_GetIndex, %function
#ifndef IMPLIB_EXPORT_SHIMS
  .hidden FMOD5_Channel_GetIndex
#endif
FMOD5_Channel_GetIndex:
  .cfi_startproc
  .cfi_def_cfa_offset 4  // Return address
  // add $0, %rsp  Why GDB fails to step over call without this?!
  // x86 has no support for PC-relative addressing so code is not very efficient.
  // We also trash EAX here (it's call-clobbered in cdecl).
  call __implib.x86.get_pc_thunk.ax
  addl $_GLOBAL_OFFSET_TABLE_, %eax
  movl 360+_libfmod_so_tramp_table@GOTOFF(%eax), %eax
  cmp $0, %eax
  je 2f
1:
  jmp *%eax
2:
  mov $90, %eax
  call _libfmod_so_save_regs_and_resolve
  jmp FMOD5_Channel_GetIndex
  .cfi_endproc
/*
 * Copyright 2019-2021 Yury Gribov
 *
 * The MIT License (MIT)
 *
 * Use of this source code is governed by MIT license that can be
 * found in the LICENSE.txt file.
 */

  .globl FMOD5_Channel_GetLoopCount
  .p2align 4
  .type FMOD5_Channel_GetLoopCount, %function
#ifndef IMPLIB_EXPORT_SHIMS
  .hidden FMOD5_Channel_GetLoopCount
#endif
FMOD5_Channel_GetLoopCount:
  .cfi_startproc
  .cfi_def_cfa_offset 4  // Return address
  // add $0, %rsp  Why GDB fails to step over call without this?!
  // x86 has no support for PC-relative addressing so code is not very efficient.
  // We also trash EAX here (it's call-clobbered in cdecl).
  call __implib.x86.get_pc_thunk.ax
  addl $_GLOBAL_OFFSET_TABLE_, %eax
  movl 364+_libfmod_so_tramp_table@GOTOFF(%eax), %eax
  cmp $0, %eax
  je 2f
1:
  jmp *%eax
2:
  mov $91, %eax
  call _libfmod_so_save_regs_and_resolve
  jmp FMOD5_Channel_GetLoopCount
  .cfi_endproc
/*
 * Copyright 2019-2021 Yury Gribov
 *
 * The MIT License (MIT)
 *
 * Use of this source code is governed by MIT license that can be
 * found in the LICENSE.txt file.
 */

  .globl FMOD5_Channel_GetLoopPoints
  .p2align 4
  .type FMOD5_Channel_GetLoopPoints, %function
#ifndef IMPLIB_EXPORT_SHIMS
  .hidden FMOD5_Channel_GetLoopPoints
#endif
FMOD5_Channel_GetLoopPoints:
  .cfi_startproc
  .cfi_def_cfa_offset 4  // Return address
  // add $0, %rsp  Why GDB fails to step over call without this?!
  // x86 has no support for PC-relative addressing so code is not very efficient.
  // We also trash EAX here (it's call-clobbered in cdecl).
  call __implib.x86.get_pc_thunk.ax
  addl $_GLOBAL_OFFSET_TABLE_, %eax
  movl 368+_libfmod_so_tramp_table@GOTOFF(%eax), %eax
  cmp $0, %eax
  je 2f
1:
  jmp *%eax
2:
  mov $92, %eax
  call _libfmod_so_save_regs_and_resolve
  jmp FMOD5_Channel_GetLoopPoints
  .cfi_endproc
/*
 * Copyright 2019-2021 Yury Gribov
 *
 * The MIT License (MIT)
 *
 * Use of this source code is governed by MIT license that can be
 * found in the LICENSE.txt file.
 */

  .globl FMOD5_Channel_GetLowPassGain
  .p2align 4
  .type FMOD5_Channel_GetLowPassGain, %function
#ifndef IMPLIB_EXPORT_SHIMS
  .hidden FMOD5_Channel_GetLowPassGain
#endif
FMOD5_Channel_GetLowPassGain:
  .cfi_startproc
  .cfi_def_cfa_offset 4  // Return address
  // add $0, %rsp  Why GDB fails to step over call without this?!
  // x86 has no support for PC-relative addressing so code is not very efficient.
  // We also trash EAX here (it's call-clobbered in cdecl).
  call __implib.x86.get_pc_thunk.ax
  addl $_GLOBAL_OFFSET_TABLE_, %eax
  movl 372+_libfmod_so_tramp_table@GOTOFF(%eax), %eax
  cmp $0, %eax
  je 2f
1:
  jmp *%eax
2:
  mov $93, %eax
  call _libfmod_so_save_regs_and_resolve
  jmp FMOD5_Channel_GetLowPassGain
  .cfi_endproc
/*
 * Copyright 2019-2021 Yury Gribov
 *
 * The MIT License (MIT)
 *
 * Use of this source code is governed by MIT license that can be
 * found in the LICENSE.txt file.
 */

  .globl FMOD5_Channel_GetMixMatrix
  .p2align 4
  .type FMOD5_Channel_GetMixMatrix, %function
#ifndef IMPLIB_EXPORT_SHIMS
  .hidden FMOD5_Channel_GetMixMatrix
#endif
FMOD5_Channel_GetMixMatrix:
  .cfi_startproc
  .cfi_def_cfa_offset 4  // Return address
  // add $0, %rsp  Why GDB fails to step over call without this?!
  // x86 has no support for PC-relative addressing so code is not very efficient.
  // We also trash EAX here (it's call-clobbered in cdecl).
  call __implib.x86.get_pc_thunk.ax
  addl $_GLOBAL_OFFSET_TABLE_, %eax
  movl 376+_libfmod_so_tramp_table@GOTOFF(%eax), %eax
  cmp $0, %eax
  je 2f
1:
  jmp *%eax
2:
  mov $94, %eax
  call _libfmod_so_save_regs_and_resolve
  jmp FMOD5_Channel_GetMixMatrix
  .cfi_endproc
/*
 * Copyright 2019-2021 Yury Gribov
 *
 * The MIT License (MIT)
 *
 * Use of this source code is governed by MIT license that can be
 * found in the LICENSE.txt file.
 */

  .globl FMOD5_Channel_GetMode
  .p2align 4
  .type FMOD5_Channel_GetMode, %function
#ifndef IMPLIB_EXPORT_SHIMS
  .hidden FMOD5_Channel_GetMode
#endif
FMOD5_Channel_GetMode:
  .cfi_startproc
  .cfi_def_cfa_offset 4  // Return address
  // add $0, %rsp  Why GDB fails to step over call without this?!
  // x86 has no support for PC-relative addressing so code is not very efficient.
  // We also trash EAX here (it's call-clobbered in cdecl).
  call __implib.x86.get_pc_thunk.ax
  addl $_GLOBAL_OFFSET_TABLE_, %eax
  movl 380+_libfmod_so_tramp_table@GOTOFF(%eax), %eax
  cmp $0, %eax
  je 2f
1:
  jmp *%eax
2:
  mov $95, %eax
  call _libfmod_so_save_regs_and_resolve
  jmp FMOD5_Channel_GetMode
  .cfi_endproc
/*
 * Copyright 2019-2021 Yury Gribov
 *
 * The MIT License (MIT)
 *
 * Use of this source code is governed by MIT license that can be
 * found in the LICENSE.txt file.
 */

  .globl FMOD5_Channel_GetMute
  .p2align 4
  .type FMOD5_Channel_GetMute, %function
#ifndef IMPLIB_EXPORT_SHIMS
  .hidden FMOD5_Channel_GetMute
#endif
FMOD5_Channel_GetMute:
  .cfi_startproc
  .cfi_def_cfa_offset 4  // Return address
  // add $0, %rsp  Why GDB fails to step over call without this?!
  // x86 has no support for PC-relative addressing so code is not very efficient.
  // We also trash EAX here (it's call-clobbered in cdecl).
  call __implib.x86.get_pc_thunk.ax
  addl $_GLOBAL_OFFSET_TABLE_, %eax
  movl 384+_libfmod_so_tramp_table@GOTOFF(%eax), %eax
  cmp $0, %eax
  je 2f
1:
  jmp *%eax
2:
  mov $96, %eax
  call _libfmod_so_save_regs_and_resolve
  jmp FMOD5_Channel_GetMute
  .cfi_endproc
/*
 * Copyright 2019-2021 Yury Gribov
 *
 * The MIT License (MIT)
 *
 * Use of this source code is governed by MIT license that can be
 * found in the LICENSE.txt file.
 */

  .globl FMOD5_Channel_GetNumDSPs
  .p2align 4
  .type FMOD5_Channel_GetNumDSPs, %function
#ifndef IMPLIB_EXPORT_SHIMS
  .hidden FMOD5_Channel_GetNumDSPs
#endif
FMOD5_Channel_GetNumDSPs:
  .cfi_startproc
  .cfi_def_cfa_offset 4  // Return address
  // add $0, %rsp  Why GDB fails to step over call without this?!
  // x86 has no support for PC-relative addressing so code is not very efficient.
  // We also trash EAX here (it's call-clobbered in cdecl).
  call __implib.x86.get_pc_thunk.ax
  addl $_GLOBAL_OFFSET_TABLE_, %eax
  movl 388+_libfmod_so_tramp_table@GOTOFF(%eax), %eax
  cmp $0, %eax
  je 2f
1:
  jmp *%eax
2:
  mov $97, %eax
  call _libfmod_so_save_regs_and_resolve
  jmp FMOD5_Channel_GetNumDSPs
  .cfi_endproc
/*
 * Copyright 2019-2021 Yury Gribov
 *
 * The MIT License (MIT)
 *
 * Use of this source code is governed by MIT license that can be
 * found in the LICENSE.txt file.
 */

  .globl FMOD5_Channel_GetPaused
  .p2align 4
  .type FMOD5_Channel_GetPaused, %function
#ifndef IMPLIB_EXPORT_SHIMS
  .hidden FMOD5_Channel_GetPaused
#endif
FMOD5_Channel_GetPaused:
  .cfi_startproc
  .cfi_def_cfa_offset 4  // Return address
  // add $0, %rsp  Why GDB fails to step over call without this?!
  // x86 has no support for PC-relative addressing so code is not very efficient.
  // We also trash EAX here (it's call-clobbered in cdecl).
  call __implib.x86.get_pc_thunk.ax
  addl $_GLOBAL_OFFSET_TABLE_, %eax
  movl 392+_libfmod_so_tramp_table@GOTOFF(%eax), %eax
  cmp $0, %eax
  je 2f
1:
  jmp *%eax
2:
  mov $98, %eax
  call _libfmod_so_save_regs_and_resolve
  jmp FMOD5_Channel_GetPaused
  .cfi_endproc
/*
 * Copyright 2019-2021 Yury Gribov
 *
 * The MIT License (MIT)
 *
 * Use of this source code is governed by MIT license that can be
 * found in the LICENSE.txt file.
 */

  .globl FMOD5_Channel_GetPitch
  .p2align 4
  .type FMOD5_Channel_GetPitch, %function
#ifndef IMPLIB_EXPORT_SHIMS
  .hidden FMOD5_Channel_GetPitch
#endif
FMOD5_Channel_GetPitch:
  .cfi_startproc
  .cfi_def_cfa_offset 4  // Return address
  // add $0, %rsp  Why GDB fails to step over call without this?!
  // x86 has no support for PC-relative addressing so code is not very efficient.
  // We also trash EAX here (it's call-clobbered in cdecl).
  call __implib.x86.get_pc_thunk.ax
  addl $_GLOBAL_OFFSET_TABLE_, %eax
  movl 396+_libfmod_so_tramp_table@GOTOFF(%eax), %eax
  cmp $0, %eax
  je 2f
1:
  jmp *%eax
2:
  mov $99, %eax
  call _libfmod_so_save_regs_and_resolve
  jmp FMOD5_Channel_GetPitch
  .cfi_endproc
/*
 * Copyright 2019-2021 Yury Gribov
 *
 * The MIT License (MIT)
 *
 * Use of this source code is governed by MIT license that can be
 * found in the LICENSE.txt file.
 */

  .globl FMOD5_Channel_GetPosition
  .p2align 4
  .type FMOD5_Channel_GetPosition, %function
#ifndef IMPLIB_EXPORT_SHIMS
  .hidden FMOD5_Channel_GetPosition
#endif
FMOD5_Channel_GetPosition:
  .cfi_startproc
  .cfi_def_cfa_offset 4  // Return address
  // add $0, %rsp  Why GDB fails to step over call without this?!
  // x86 has no support for PC-relative addressing so code is not very efficient.
  // We also trash EAX here (it's call-clobbered in cdecl).
  call __implib.x86.get_pc_thunk.ax
  addl $_GLOBAL_OFFSET_TABLE_, %eax
  movl 400+_libfmod_so_tramp_table@GOTOFF(%eax), %eax
  cmp $0, %eax
  je 2f
1:
  jmp *%eax
2:
  mov $100, %eax
  call _libfmod_so_save_regs_and_resolve
  jmp FMOD5_Channel_GetPosition
  .cfi_endproc
/*
 * Copyright 2019-2021 Yury Gribov
 *
 * The MIT License (MIT)
 *
 * Use of this source code is governed by MIT license that can be
 * found in the LICENSE.txt file.
 */

  .globl FMOD5_Channel_GetPriority
  .p2align 4
  .type FMOD5_Channel_GetPriority, %function
#ifndef IMPLIB_EXPORT_SHIMS
  .hidden FMOD5_Channel_GetPriority
#endif
FMOD5_Channel_GetPriority:
  .cfi_startproc
  .cfi_def_cfa_offset 4  // Return address
  // add $0, %rsp  Why GDB fails to step over call without this?!
  // x86 has no support for PC-relative addressing so code is not very efficient.
  // We also trash EAX here (it's call-clobbered in cdecl).
  call __implib.x86.get_pc_thunk.ax
  addl $_GLOBAL_OFFSET_TABLE_, %eax
  movl 404+_libfmod_so_tramp_table@GOTOFF(%eax), %eax
  cmp $0, %eax
  je 2f
1:
  jmp *%eax
2:
  mov $101, %eax
  call _libfmod_so_save_regs_and_resolve
  jmp FMOD5_Channel_GetPriority
  .cfi_endproc
/*
 * Copyright 2019-2021 Yury Gribov
 *
 * The MIT License (MIT)
 *
 * Use of this source code is governed by MIT license that can be
 * found in the LICENSE.txt file.
 */

  .globl FMOD5_Channel_GetReverbProperties
  .p2align 4
  .type FMOD5_Channel_GetReverbProperties, %function
#ifndef IMPLIB_EXPORT_SHIMS
  .hidden FMOD5_Channel_GetReverbProperties
#endif
FMOD5_Channel_GetReverbProperties:
  .cfi_startproc
  .cfi_def_cfa_offset 4  // Return address
  // add $0, %rsp  Why GDB fails to step over call without this?!
  // x86 has no support for PC-relative addressing so code is not very efficient.
  // We also trash EAX here (it's call-clobbered in cdecl).
  call __implib.x86.get_pc_thunk.ax
  addl $_GLOBAL_OFFSET_TABLE_, %eax
  movl 408+_libfmod_so_tramp_table@GOTOFF(%eax), %eax
  cmp $0, %eax
  je 2f
1:
  jmp *%eax
2:
  mov $102, %eax
  call _libfmod_so_save_regs_and_resolve
  jmp FMOD5_Channel_GetReverbProperties
  .cfi_endproc
/*
 * Copyright 2019-2021 Yury Gribov
 *
 * The MIT License (MIT)
 *
 * Use of this source code is governed by MIT license that can be
 * found in the LICENSE.txt file.
 */

  .globl FMOD5_Channel_GetSystemObject
  .p2align 4
  .type FMOD5_Channel_GetSystemObject, %function
#ifndef IMPLIB_EXPORT_SHIMS
  .hidden FMOD5_Channel_GetSystemObject
#endif
FMOD5_Channel_GetSystemObject:
  .cfi_startproc
  .cfi_def_cfa_offset 4  // Return address
  // add $0, %rsp  Why GDB fails to step over call without this?!
  // x86 has no support for PC-relative addressing so code is not very efficient.
  // We also trash EAX here (it's call-clobbered in cdecl).
  call __implib.x86.get_pc_thunk.ax
  addl $_GLOBAL_OFFSET_TABLE_, %eax
  movl 412+_libfmod_so_tramp_table@GOTOFF(%eax), %eax
  cmp $0, %eax
  je 2f
1:
  jmp *%eax
2:
  mov $103, %eax
  call _libfmod_so_save_regs_and_resolve
  jmp FMOD5_Channel_GetSystemObject
  .cfi_endproc
/*
 * Copyright 2019-2021 Yury Gribov
 *
 * The MIT License (MIT)
 *
 * Use of this source code is governed by MIT license that can be
 * found in the LICENSE.txt file.
 */

  .globl FMOD5_Channel_GetUserData
  .p2align 4
  .type FMOD5_Channel_GetUserData, %function
#ifndef IMPLIB_EXPORT_SHIMS
  .hidden FMOD5_Channel_GetUserData
#endif
FMOD5_Channel_GetUserData:
  .cfi_startproc
  .cfi_def_cfa_offset 4  // Return address
  // add $0, %rsp  Why GDB fails to step over call without this?!
  // x86 has no support for PC-relative addressing so code is not very efficient.
  // We also trash EAX here (it's call-clobbered in cdecl).
  call __implib.x86.get_pc_thunk.ax
  addl $_GLOBAL_OFFSET_TABLE_, %eax
  movl 416+_libfmod_so_tramp_table@GOTOFF(%eax), %eax
  cmp $0, %eax
  je 2f
1:
  jmp *%eax
2:
  mov $104, %eax
  call _libfmod_so_save_regs_and_resolve
  jmp FMOD5_Channel_GetUserData
  .cfi_endproc
/*
 * Copyright 2019-2021 Yury Gribov
 *
 * The MIT License (MIT)
 *
 * Use of this source code is governed by MIT license that can be
 * found in the LICENSE.txt file.
 */

  .globl FMOD5_Channel_GetVolume
  .p2align 4
  .type FMOD5_Channel_GetVolume, %function
#ifndef IMPLIB_EXPORT_SHIMS
  .hidden FMOD5_Channel_GetVolume
#endif
FMOD5_Channel_GetVolume:
  .cfi_startproc
  .cfi_def_cfa_offset 4  // Return address
  // add $0, %rsp  Why GDB fails to step over call without this?!
  // x86 has no support for PC-relative addressing so code is not very efficient.
  // We also trash EAX here (it's call-clobbered in cdecl).
  call __implib.x86.get_pc_thunk.ax
  addl $_GLOBAL_OFFSET_TABLE_, %eax
  movl 420+_libfmod_so_tramp_table@GOTOFF(%eax), %eax
  cmp $0, %eax
  je 2f
1:
  jmp *%eax
2:
  mov $105, %eax
  call _libfmod_so_save_regs_and_resolve
  jmp FMOD5_Channel_GetVolume
  .cfi_endproc
/*
 * Copyright 2019-2021 Yury Gribov
 *
 * The MIT License (MIT)
 *
 * Use of this source code is governed by MIT license that can be
 * found in the LICENSE.txt file.
 */

  .globl FMOD5_Channel_GetVolumeRamp
  .p2align 4
  .type FMOD5_Channel_GetVolumeRamp, %function
#ifndef IMPLIB_EXPORT_SHIMS
  .hidden FMOD5_Channel_GetVolumeRamp
#endif
FMOD5_Channel_GetVolumeRamp:
  .cfi_startproc
  .cfi_def_cfa_offset 4  // Return address
  // add $0, %rsp  Why GDB fails to step over call without this?!
  // x86 has no support for PC-relative addressing so code is not very efficient.
  // We also trash EAX here (it's call-clobbered in cdecl).
  call __implib.x86.get_pc_thunk.ax
  addl $_GLOBAL_OFFSET_TABLE_, %eax
  movl 424+_libfmod_so_tramp_table@GOTOFF(%eax), %eax
  cmp $0, %eax
  je 2f
1:
  jmp *%eax
2:
  mov $106, %eax
  call _libfmod_so_save_regs_and_resolve
  jmp FMOD5_Channel_GetVolumeRamp
  .cfi_endproc
/*
 * Copyright 2019-2021 Yury Gribov
 *
 * The MIT License (MIT)
 *
 * Use of this source code is governed by MIT license that can be
 * found in the LICENSE.txt file.
 */

  .globl FMOD5_Channel_IsPlaying
  .p2align 4
  .type FMOD5_Channel_IsPlaying, %function
#ifndef IMPLIB_EXPORT_SHIMS
  .hidden FMOD5_Channel_IsPlaying
#endif
FMOD5_Channel_IsPlaying:
  .cfi_startproc
  .cfi_def_cfa_offset 4  // Return address
  // add $0, %rsp  Why GDB fails to step over call without this?!
  // x86 has no support for PC-relative addressing so code is not very efficient.
  // We also trash EAX here (it's call-clobbered in cdecl).
  call __implib.x86.get_pc_thunk.ax
  addl $_GLOBAL_OFFSET_TABLE_, %eax
  movl 428+_libfmod_so_tramp_table@GOTOFF(%eax), %eax
  cmp $0, %eax
  je 2f
1:
  jmp *%eax
2:
  mov $107, %eax
  call _libfmod_so_save_regs_and_resolve
  jmp FMOD5_Channel_IsPlaying
  .cfi_endproc
/*
 * Copyright 2019-2021 Yury Gribov
 *
 * The MIT License (MIT)
 *
 * Use of this source code is governed by MIT license that can be
 * found in the LICENSE.txt file.
 */

  .globl FMOD5_Channel_IsVirtual
  .p2align 4
  .type FMOD5_Channel_IsVirtual, %function
#ifndef IMPLIB_EXPORT_SHIMS
  .hidden FMOD5_Channel_IsVirtual
#endif
FMOD5_Channel_IsVirtual:
  .cfi_startproc
  .cfi_def_cfa_offset 4  // Return address
  // add $0, %rsp  Why GDB fails to step over call without this?!
  // x86 has no support for PC-relative addressing so code is not very efficient.
  // We also trash EAX here (it's call-clobbered in cdecl).
  call __implib.x86.get_pc_thunk.ax
  addl $_GLOBAL_OFFSET_TABLE_, %eax
  movl 432+_libfmod_so_tramp_table@GOTOFF(%eax), %eax
  cmp $0, %eax
  je 2f
1:
  jmp *%eax
2:
  mov $108, %eax
  call _libfmod_so_save_regs_and_resolve
  jmp FMOD5_Channel_IsVirtual
  .cfi_endproc
/*
 * Copyright 2019-2021 Yury Gribov
 *
 * The MIT License (MIT)
 *
 * Use of this source code is governed by MIT license that can be
 * found in the LICENSE.txt file.
 */

  .globl FMOD5_Channel_RemoveDSP
  .p2align 4
  .type FMOD5_Channel_RemoveDSP, %function
#ifndef IMPLIB_EXPORT_SHIMS
  .hidden FMOD5_Channel_RemoveDSP
#endif
FMOD5_Channel_RemoveDSP:
  .cfi_startproc
  .cfi_def_cfa_offset 4  // Return address
  // add $0, %rsp  Why GDB fails to step over call without this?!
  // x86 has no support for PC-relative addressing so code is not very efficient.
  // We also trash EAX here (it's call-clobbered in cdecl).
  call __implib.x86.get_pc_thunk.ax
  addl $_GLOBAL_OFFSET_TABLE_, %eax
  movl 436+_libfmod_so_tramp_table@GOTOFF(%eax), %eax
  cmp $0, %eax
  je 2f
1:
  jmp *%eax
2:
  mov $109, %eax
  call _libfmod_so_save_regs_and_resolve
  jmp FMOD5_Channel_RemoveDSP
  .cfi_endproc
/*
 * Copyright 2019-2021 Yury Gribov
 *
 * The MIT License (MIT)
 *
 * Use of this source code is governed by MIT license that can be
 * found in the LICENSE.txt file.
 */

  .globl FMOD5_Channel_RemoveFadePoints
  .p2align 4
  .type FMOD5_Channel_RemoveFadePoints, %function
#ifndef IMPLIB_EXPORT_SHIMS
  .hidden FMOD5_Channel_RemoveFadePoints
#endif
FMOD5_Channel_RemoveFadePoints:
  .cfi_startproc
  .cfi_def_cfa_offset 4  // Return address
  // add $0, %rsp  Why GDB fails to step over call without this?!
  // x86 has no support for PC-relative addressing so code is not very efficient.
  // We also trash EAX here (it's call-clobbered in cdecl).
  call __implib.x86.get_pc_thunk.ax
  addl $_GLOBAL_OFFSET_TABLE_, %eax
  movl 440+_libfmod_so_tramp_table@GOTOFF(%eax), %eax
  cmp $0, %eax
  je 2f
1:
  jmp *%eax
2:
  mov $110, %eax
  call _libfmod_so_save_regs_and_resolve
  jmp FMOD5_Channel_RemoveFadePoints
  .cfi_endproc
/*
 * Copyright 2019-2021 Yury Gribov
 *
 * The MIT License (MIT)
 *
 * Use of this source code is governed by MIT license that can be
 * found in the LICENSE.txt file.
 */

  .globl FMOD5_Channel_Set3DAttributes
  .p2align 4
  .type FMOD5_Channel_Set3DAttributes, %function
#ifndef IMPLIB_EXPORT_SHIMS
  .hidden FMOD5_Channel_Set3DAttributes
#endif
FMOD5_Channel_Set3DAttributes:
  .cfi_startproc
  .cfi_def_cfa_offset 4  // Return address
  // add $0, %rsp  Why GDB fails to step over call without this?!
  // x86 has no support for PC-relative addressing so code is not very efficient.
  // We also trash EAX here (it's call-clobbered in cdecl).
  call __implib.x86.get_pc_thunk.ax
  addl $_GLOBAL_OFFSET_TABLE_, %eax
  movl 444+_libfmod_so_tramp_table@GOTOFF(%eax), %eax
  cmp $0, %eax
  je 2f
1:
  jmp *%eax
2:
  mov $111, %eax
  call _libfmod_so_save_regs_and_resolve
  jmp FMOD5_Channel_Set3DAttributes
  .cfi_endproc
/*
 * Copyright 2019-2021 Yury Gribov
 *
 * The MIT License (MIT)
 *
 * Use of this source code is governed by MIT license that can be
 * found in the LICENSE.txt file.
 */

  .globl FMOD5_Channel_Set3DConeOrientation
  .p2align 4
  .type FMOD5_Channel_Set3DConeOrientation, %function
#ifndef IMPLIB_EXPORT_SHIMS
  .hidden FMOD5_Channel_Set3DConeOrientation
#endif
FMOD5_Channel_Set3DConeOrientation:
  .cfi_startproc
  .cfi_def_cfa_offset 4  // Return address
  // add $0, %rsp  Why GDB fails to step over call without this?!
  // x86 has no support for PC-relative addressing so code is not very efficient.
  // We also trash EAX here (it's call-clobbered in cdecl).
  call __implib.x86.get_pc_thunk.ax
  addl $_GLOBAL_OFFSET_TABLE_, %eax
  movl 448+_libfmod_so_tramp_table@GOTOFF(%eax), %eax
  cmp $0, %eax
  je 2f
1:
  jmp *%eax
2:
  mov $112, %eax
  call _libfmod_so_save_regs_and_resolve
  jmp FMOD5_Channel_Set3DConeOrientation
  .cfi_endproc
/*
 * Copyright 2019-2021 Yury Gribov
 *
 * The MIT License (MIT)
 *
 * Use of this source code is governed by MIT license that can be
 * found in the LICENSE.txt file.
 */

  .globl FMOD5_Channel_Set3DConeSettings
  .p2align 4
  .type FMOD5_Channel_Set3DConeSettings, %function
#ifndef IMPLIB_EXPORT_SHIMS
  .hidden FMOD5_Channel_Set3DConeSettings
#endif
FMOD5_Channel_Set3DConeSettings:
  .cfi_startproc
  .cfi_def_cfa_offset 4  // Return address
  // add $0, %rsp  Why GDB fails to step over call without this?!
  // x86 has no support for PC-relative addressing so code is not very efficient.
  // We also trash EAX here (it's call-clobbered in cdecl).
  call __implib.x86.get_pc_thunk.ax
  addl $_GLOBAL_OFFSET_TABLE_, %eax
  movl 452+_libfmod_so_tramp_table@GOTOFF(%eax), %eax
  cmp $0, %eax
  je 2f
1:
  jmp *%eax
2:
  mov $113, %eax
  call _libfmod_so_save_regs_and_resolve
  jmp FMOD5_Channel_Set3DConeSettings
  .cfi_endproc
/*
 * Copyright 2019-2021 Yury Gribov
 *
 * The MIT License (MIT)
 *
 * Use of this source code is governed by MIT license that can be
 * found in the LICENSE.txt file.
 */

  .globl FMOD5_Channel_Set3DCustomRolloff
  .p2align 4
  .type FMOD5_Channel_Set3DCustomRolloff, %function
#ifndef IMPLIB_EXPORT_SHIMS
  .hidden FMOD5_Channel_Set3DCustomRolloff
#endif
FMOD5_Channel_Set3DCustomRolloff:
  .cfi_startproc
  .cfi_def_cfa_offset 4  // Return address
  // add $0, %rsp  Why GDB fails to step over call without this?!
  // x86 has no support for PC-relative addressing so code is not very efficient.
  // We also trash EAX here (it's call-clobbered in cdecl).
  call __implib.x86.get_pc_thunk.ax
  addl $_GLOBAL_OFFSET_TABLE_, %eax
  movl 456+_libfmod_so_tramp_table@GOTOFF(%eax), %eax
  cmp $0, %eax
  je 2f
1:
  jmp *%eax
2:
  mov $114, %eax
  call _libfmod_so_save_regs_and_resolve
  jmp FMOD5_Channel_Set3DCustomRolloff
  .cfi_endproc
/*
 * Copyright 2019-2021 Yury Gribov
 *
 * The MIT License (MIT)
 *
 * Use of this source code is governed by MIT license that can be
 * found in the LICENSE.txt file.
 */

  .globl FMOD5_Channel_Set3DDistanceFilter
  .p2align 4
  .type FMOD5_Channel_Set3DDistanceFilter, %function
#ifndef IMPLIB_EXPORT_SHIMS
  .hidden FMOD5_Channel_Set3DDistanceFilter
#endif
FMOD5_Channel_Set3DDistanceFilter:
  .cfi_startproc
  .cfi_def_cfa_offset 4  // Return address
  // add $0, %rsp  Why GDB fails to step over call without this?!
  // x86 has no support for PC-relative addressing so code is not very efficient.
  // We also trash EAX here (it's call-clobbered in cdecl).
  call __implib.x86.get_pc_thunk.ax
  addl $_GLOBAL_OFFSET_TABLE_, %eax
  movl 460+_libfmod_so_tramp_table@GOTOFF(%eax), %eax
  cmp $0, %eax
  je 2f
1:
  jmp *%eax
2:
  mov $115, %eax
  call _libfmod_so_save_regs_and_resolve
  jmp FMOD5_Channel_Set3DDistanceFilter
  .cfi_endproc
/*
 * Copyright 2019-2021 Yury Gribov
 *
 * The MIT License (MIT)
 *
 * Use of this source code is governed by MIT license that can be
 * found in the LICENSE.txt file.
 */

  .globl FMOD5_Channel_Set3DDopplerLevel
  .p2align 4
  .type FMOD5_Channel_Set3DDopplerLevel, %function
#ifndef IMPLIB_EXPORT_SHIMS
  .hidden FMOD5_Channel_Set3DDopplerLevel
#endif
FMOD5_Channel_Set3DDopplerLevel:
  .cfi_startproc
  .cfi_def_cfa_offset 4  // Return address
  // add $0, %rsp  Why GDB fails to step over call without this?!
  // x86 has no support for PC-relative addressing so code is not very efficient.
  // We also trash EAX here (it's call-clobbered in cdecl).
  call __implib.x86.get_pc_thunk.ax
  addl $_GLOBAL_OFFSET_TABLE_, %eax
  movl 464+_libfmod_so_tramp_table@GOTOFF(%eax), %eax
  cmp $0, %eax
  je 2f
1:
  jmp *%eax
2:
  mov $116, %eax
  call _libfmod_so_save_regs_and_resolve
  jmp FMOD5_Channel_Set3DDopplerLevel
  .cfi_endproc
/*
 * Copyright 2019-2021 Yury Gribov
 *
 * The MIT License (MIT)
 *
 * Use of this source code is governed by MIT license that can be
 * found in the LICENSE.txt file.
 */

  .globl FMOD5_Channel_Set3DLevel
  .p2align 4
  .type FMOD5_Channel_Set3DLevel, %function
#ifndef IMPLIB_EXPORT_SHIMS
  .hidden FMOD5_Channel_Set3DLevel
#endif
FMOD5_Channel_Set3DLevel:
  .cfi_startproc
  .cfi_def_cfa_offset 4  // Return address
  // add $0, %rsp  Why GDB fails to step over call without this?!
  // x86 has no support for PC-relative addressing so code is not very efficient.
  // We also trash EAX here (it's call-clobbered in cdecl).
  call __implib.x86.get_pc_thunk.ax
  addl $_GLOBAL_OFFSET_TABLE_, %eax
  movl 468+_libfmod_so_tramp_table@GOTOFF(%eax), %eax
  cmp $0, %eax
  je 2f
1:
  jmp *%eax
2:
  mov $117, %eax
  call _libfmod_so_save_regs_and_resolve
  jmp FMOD5_Channel_Set3DLevel
  .cfi_endproc
/*
 * Copyright 2019-2021 Yury Gribov
 *
 * The MIT License (MIT)
 *
 * Use of this source code is governed by MIT license that can be
 * found in the LICENSE.txt file.
 */

  .globl FMOD5_Channel_Set3DMinMaxDistance
  .p2align 4
  .type FMOD5_Channel_Set3DMinMaxDistance, %function
#ifndef IMPLIB_EXPORT_SHIMS
  .hidden FMOD5_Channel_Set3DMinMaxDistance
#endif
FMOD5_Channel_Set3DMinMaxDistance:
  .cfi_startproc
  .cfi_def_cfa_offset 4  // Return address
  // add $0, %rsp  Why GDB fails to step over call without this?!
  // x86 has no support for PC-relative addressing so code is not very efficient.
  // We also trash EAX here (it's call-clobbered in cdecl).
  call __implib.x86.get_pc_thunk.ax
  addl $_GLOBAL_OFFSET_TABLE_, %eax
  movl 472+_libfmod_so_tramp_table@GOTOFF(%eax), %eax
  cmp $0, %eax
  je 2f
1:
  jmp *%eax
2:
  mov $118, %eax
  call _libfmod_so_save_regs_and_resolve
  jmp FMOD5_Channel_Set3DMinMaxDistance
  .cfi_endproc
/*
 * Copyright 2019-2021 Yury Gribov
 *
 * The MIT License (MIT)
 *
 * Use of this source code is governed by MIT license that can be
 * found in the LICENSE.txt file.
 */

  .globl FMOD5_Channel_Set3DOcclusion
  .p2align 4
  .type FMOD5_Channel_Set3DOcclusion, %function
#ifndef IMPLIB_EXPORT_SHIMS
  .hidden FMOD5_Channel_Set3DOcclusion
#endif
FMOD5_Channel_Set3DOcclusion:
  .cfi_startproc
  .cfi_def_cfa_offset 4  // Return address
  // add $0, %rsp  Why GDB fails to step over call without this?!
  // x86 has no support for PC-relative addressing so code is not very efficient.
  // We also trash EAX here (it's call-clobbered in cdecl).
  call __implib.x86.get_pc_thunk.ax
  addl $_GLOBAL_OFFSET_TABLE_, %eax
  movl 476+_libfmod_so_tramp_table@GOTOFF(%eax), %eax
  cmp $0, %eax
  je 2f
1:
  jmp *%eax
2:
  mov $119, %eax
  call _libfmod_so_save_regs_and_resolve
  jmp FMOD5_Channel_Set3DOcclusion
  .cfi_endproc
/*
 * Copyright 2019-2021 Yury Gribov
 *
 * The MIT License (MIT)
 *
 * Use of this source code is governed by MIT license that can be
 * found in the LICENSE.txt file.
 */

  .globl FMOD5_Channel_Set3DSpread
  .p2align 4
  .type FMOD5_Channel_Set3DSpread, %function
#ifndef IMPLIB_EXPORT_SHIMS
  .hidden FMOD5_Channel_Set3DSpread
#endif
FMOD5_Channel_Set3DSpread:
  .cfi_startproc
  .cfi_def_cfa_offset 4  // Return address
  // add $0, %rsp  Why GDB fails to step over call without this?!
  // x86 has no support for PC-relative addressing so code is not very efficient.
  // We also trash EAX here (it's call-clobbered in cdecl).
  call __implib.x86.get_pc_thunk.ax
  addl $_GLOBAL_OFFSET_TABLE_, %eax
  movl 480+_libfmod_so_tramp_table@GOTOFF(%eax), %eax
  cmp $0, %eax
  je 2f
1:
  jmp *%eax
2:
  mov $120, %eax
  call _libfmod_so_save_regs_and_resolve
  jmp FMOD5_Channel_Set3DSpread
  .cfi_endproc
/*
 * Copyright 2019-2021 Yury Gribov
 *
 * The MIT License (MIT)
 *
 * Use of this source code is governed by MIT license that can be
 * found in the LICENSE.txt file.
 */

  .globl FMOD5_Channel_SetCallback
  .p2align 4
  .type FMOD5_Channel_SetCallback, %function
#ifndef IMPLIB_EXPORT_SHIMS
  .hidden FMOD5_Channel_SetCallback
#endif
FMOD5_Channel_SetCallback:
  .cfi_startproc
  .cfi_def_cfa_offset 4  // Return address
  // add $0, %rsp  Why GDB fails to step over call without this?!
  // x86 has no support for PC-relative addressing so code is not very efficient.
  // We also trash EAX here (it's call-clobbered in cdecl).
  call __implib.x86.get_pc_thunk.ax
  addl $_GLOBAL_OFFSET_TABLE_, %eax
  movl 484+_libfmod_so_tramp_table@GOTOFF(%eax), %eax
  cmp $0, %eax
  je 2f
1:
  jmp *%eax
2:
  mov $121, %eax
  call _libfmod_so_save_regs_and_resolve
  jmp FMOD5_Channel_SetCallback
  .cfi_endproc
/*
 * Copyright 2019-2021 Yury Gribov
 *
 * The MIT License (MIT)
 *
 * Use of this source code is governed by MIT license that can be
 * found in the LICENSE.txt file.
 */

  .globl FMOD5_Channel_SetChannelGroup
  .p2align 4
  .type FMOD5_Channel_SetChannelGroup, %function
#ifndef IMPLIB_EXPORT_SHIMS
  .hidden FMOD5_Channel_SetChannelGroup
#endif
FMOD5_Channel_SetChannelGroup:
  .cfi_startproc
  .cfi_def_cfa_offset 4  // Return address
  // add $0, %rsp  Why GDB fails to step over call without this?!
  // x86 has no support for PC-relative addressing so code is not very efficient.
  // We also trash EAX here (it's call-clobbered in cdecl).
  call __implib.x86.get_pc_thunk.ax
  addl $_GLOBAL_OFFSET_TABLE_, %eax
  movl 488+_libfmod_so_tramp_table@GOTOFF(%eax), %eax
  cmp $0, %eax
  je 2f
1:
  jmp *%eax
2:
  mov $122, %eax
  call _libfmod_so_save_regs_and_resolve
  jmp FMOD5_Channel_SetChannelGroup
  .cfi_endproc
/*
 * Copyright 2019-2021 Yury Gribov
 *
 * The MIT License (MIT)
 *
 * Use of this source code is governed by MIT license that can be
 * found in the LICENSE.txt file.
 */

  .globl FMOD5_Channel_SetDSPIndex
  .p2align 4
  .type FMOD5_Channel_SetDSPIndex, %function
#ifndef IMPLIB_EXPORT_SHIMS
  .hidden FMOD5_Channel_SetDSPIndex
#endif
FMOD5_Channel_SetDSPIndex:
  .cfi_startproc
  .cfi_def_cfa_offset 4  // Return address
  // add $0, %rsp  Why GDB fails to step over call without this?!
  // x86 has no support for PC-relative addressing so code is not very efficient.
  // We also trash EAX here (it's call-clobbered in cdecl).
  call __implib.x86.get_pc_thunk.ax
  addl $_GLOBAL_OFFSET_TABLE_, %eax
  movl 492+_libfmod_so_tramp_table@GOTOFF(%eax), %eax
  cmp $0, %eax
  je 2f
1:
  jmp *%eax
2:
  mov $123, %eax
  call _libfmod_so_save_regs_and_resolve
  jmp FMOD5_Channel_SetDSPIndex
  .cfi_endproc
/*
 * Copyright 2019-2021 Yury Gribov
 *
 * The MIT License (MIT)
 *
 * Use of this source code is governed by MIT license that can be
 * found in the LICENSE.txt file.
 */

  .globl FMOD5_Channel_SetDelay
  .p2align 4
  .type FMOD5_Channel_SetDelay, %function
#ifndef IMPLIB_EXPORT_SHIMS
  .hidden FMOD5_Channel_SetDelay
#endif
FMOD5_Channel_SetDelay:
  .cfi_startproc
  .cfi_def_cfa_offset 4  // Return address
  // add $0, %rsp  Why GDB fails to step over call without this?!
  // x86 has no support for PC-relative addressing so code is not very efficient.
  // We also trash EAX here (it's call-clobbered in cdecl).
  call __implib.x86.get_pc_thunk.ax
  addl $_GLOBAL_OFFSET_TABLE_, %eax
  movl 496+_libfmod_so_tramp_table@GOTOFF(%eax), %eax
  cmp $0, %eax
  je 2f
1:
  jmp *%eax
2:
  mov $124, %eax
  call _libfmod_so_save_regs_and_resolve
  jmp FMOD5_Channel_SetDelay
  .cfi_endproc
/*
 * Copyright 2019-2021 Yury Gribov
 *
 * The MIT License (MIT)
 *
 * Use of this source code is governed by MIT license that can be
 * found in the LICENSE.txt file.
 */

  .globl FMOD5_Channel_SetFadePointRamp
  .p2align 4
  .type FMOD5_Channel_SetFadePointRamp, %function
#ifndef IMPLIB_EXPORT_SHIMS
  .hidden FMOD5_Channel_SetFadePointRamp
#endif
FMOD5_Channel_SetFadePointRamp:
  .cfi_startproc
  .cfi_def_cfa_offset 4  // Return address
  // add $0, %rsp  Why GDB fails to step over call without this?!
  // x86 has no support for PC-relative addressing so code is not very efficient.
  // We also trash EAX here (it's call-clobbered in cdecl).
  call __implib.x86.get_pc_thunk.ax
  addl $_GLOBAL_OFFSET_TABLE_, %eax
  movl 500+_libfmod_so_tramp_table@GOTOFF(%eax), %eax
  cmp $0, %eax
  je 2f
1:
  jmp *%eax
2:
  mov $125, %eax
  call _libfmod_so_save_regs_and_resolve
  jmp FMOD5_Channel_SetFadePointRamp
  .cfi_endproc
/*
 * Copyright 2019-2021 Yury Gribov
 *
 * The MIT License (MIT)
 *
 * Use of this source code is governed by MIT license that can be
 * found in the LICENSE.txt file.
 */

  .globl FMOD5_Channel_SetFrequency
  .p2align 4
  .type FMOD5_Channel_SetFrequency, %function
#ifndef IMPLIB_EXPORT_SHIMS
  .hidden FMOD5_Channel_SetFrequency
#endif
FMOD5_Channel_SetFrequency:
  .cfi_startproc
  .cfi_def_cfa_offset 4  // Return address
  // add $0, %rsp  Why GDB fails to step over call without this?!
  // x86 has no support for PC-relative addressing so code is not very efficient.
  // We also trash EAX here (it's call-clobbered in cdecl).
  call __implib.x86.get_pc_thunk.ax
  addl $_GLOBAL_OFFSET_TABLE_, %eax
  movl 504+_libfmod_so_tramp_table@GOTOFF(%eax), %eax
  cmp $0, %eax
  je 2f
1:
  jmp *%eax
2:
  mov $126, %eax
  call _libfmod_so_save_regs_and_resolve
  jmp FMOD5_Channel_SetFrequency
  .cfi_endproc
/*
 * Copyright 2019-2021 Yury Gribov
 *
 * The MIT License (MIT)
 *
 * Use of this source code is governed by MIT license that can be
 * found in the LICENSE.txt file.
 */

  .globl FMOD5_Channel_SetLoopCount
  .p2align 4
  .type FMOD5_Channel_SetLoopCount, %function
#ifndef IMPLIB_EXPORT_SHIMS
  .hidden FMOD5_Channel_SetLoopCount
#endif
FMOD5_Channel_SetLoopCount:
  .cfi_startproc
  .cfi_def_cfa_offset 4  // Return address
  // add $0, %rsp  Why GDB fails to step over call without this?!
  // x86 has no support for PC-relative addressing so code is not very efficient.
  // We also trash EAX here (it's call-clobbered in cdecl).
  call __implib.x86.get_pc_thunk.ax
  addl $_GLOBAL_OFFSET_TABLE_, %eax
  movl 508+_libfmod_so_tramp_table@GOTOFF(%eax), %eax
  cmp $0, %eax
  je 2f
1:
  jmp *%eax
2:
  mov $127, %eax
  call _libfmod_so_save_regs_and_resolve
  jmp FMOD5_Channel_SetLoopCount
  .cfi_endproc
/*
 * Copyright 2019-2021 Yury Gribov
 *
 * The MIT License (MIT)
 *
 * Use of this source code is governed by MIT license that can be
 * found in the LICENSE.txt file.
 */

  .globl FMOD5_Channel_SetLoopPoints
  .p2align 4
  .type FMOD5_Channel_SetLoopPoints, %function
#ifndef IMPLIB_EXPORT_SHIMS
  .hidden FMOD5_Channel_SetLoopPoints
#endif
FMOD5_Channel_SetLoopPoints:
  .cfi_startproc
  .cfi_def_cfa_offset 4  // Return address
  // add $0, %rsp  Why GDB fails to step over call without this?!
  // x86 has no support for PC-relative addressing so code is not very efficient.
  // We also trash EAX here (it's call-clobbered in cdecl).
  call __implib.x86.get_pc_thunk.ax
  addl $_GLOBAL_OFFSET_TABLE_, %eax
  movl 512+_libfmod_so_tramp_table@GOTOFF(%eax), %eax
  cmp $0, %eax
  je 2f
1:
  jmp *%eax
2:
  mov $128, %eax
  call _libfmod_so_save_regs_and_resolve
  jmp FMOD5_Channel_SetLoopPoints
  .cfi_endproc
/*
 * Copyright 2019-2021 Yury Gribov
 *
 * The MIT License (MIT)
 *
 * Use of this source code is governed by MIT license that can be
 * found in the LICENSE.txt file.
 */

  .globl FMOD5_Channel_SetLowPassGain
  .p2align 4
  .type FMOD5_Channel_SetLowPassGain, %function
#ifndef IMPLIB_EXPORT_SHIMS
  .hidden FMOD5_Channel_SetLowPassGain
#endif
FMOD5_Channel_SetLowPassGain:
  .cfi_startproc
  .cfi_def_cfa_offset 4  // Return address
  // add $0, %rsp  Why GDB fails to step over call without this?!
  // x86 has no support for PC-relative addressing so code is not very efficient.
  // We also trash EAX here (it's call-clobbered in cdecl).
  call __implib.x86.get_pc_thunk.ax
  addl $_GLOBAL_OFFSET_TABLE_, %eax
  movl 516+_libfmod_so_tramp_table@GOTOFF(%eax), %eax
  cmp $0, %eax
  je 2f
1:
  jmp *%eax
2:
  mov $129, %eax
  call _libfmod_so_save_regs_and_resolve
  jmp FMOD5_Channel_SetLowPassGain
  .cfi_endproc
/*
 * Copyright 2019-2021 Yury Gribov
 *
 * The MIT License (MIT)
 *
 * Use of this source code is governed by MIT license that can be
 * found in the LICENSE.txt file.
 */

  .globl FMOD5_Channel_SetMixLevelsInput
  .p2align 4
  .type FMOD5_Channel_SetMixLevelsInput, %function
#ifndef IMPLIB_EXPORT_SHIMS
  .hidden FMOD5_Channel_SetMixLevelsInput
#endif
FMOD5_Channel_SetMixLevelsInput:
  .cfi_startproc
  .cfi_def_cfa_offset 4  // Return address
  // add $0, %rsp  Why GDB fails to step over call without this?!
  // x86 has no support for PC-relative addressing so code is not very efficient.
  // We also trash EAX here (it's call-clobbered in cdecl).
  call __implib.x86.get_pc_thunk.ax
  addl $_GLOBAL_OFFSET_TABLE_, %eax
  movl 520+_libfmod_so_tramp_table@GOTOFF(%eax), %eax
  cmp $0, %eax
  je 2f
1:
  jmp *%eax
2:
  mov $130, %eax
  call _libfmod_so_save_regs_and_resolve
  jmp FMOD5_Channel_SetMixLevelsInput
  .cfi_endproc
/*
 * Copyright 2019-2021 Yury Gribov
 *
 * The MIT License (MIT)
 *
 * Use of this source code is governed by MIT license that can be
 * found in the LICENSE.txt file.
 */

  .globl FMOD5_Channel_SetMixLevelsOutput
  .p2align 4
  .type FMOD5_Channel_SetMixLevelsOutput, %function
#ifndef IMPLIB_EXPORT_SHIMS
  .hidden FMOD5_Channel_SetMixLevelsOutput
#endif
FMOD5_Channel_SetMixLevelsOutput:
  .cfi_startproc
  .cfi_def_cfa_offset 4  // Return address
  // add $0, %rsp  Why GDB fails to step over call without this?!
  // x86 has no support for PC-relative addressing so code is not very efficient.
  // We also trash EAX here (it's call-clobbered in cdecl).
  call __implib.x86.get_pc_thunk.ax
  addl $_GLOBAL_OFFSET_TABLE_, %eax
  movl 524+_libfmod_so_tramp_table@GOTOFF(%eax), %eax
  cmp $0, %eax
  je 2f
1:
  jmp *%eax
2:
  mov $131, %eax
  call _libfmod_so_save_regs_and_resolve
  jmp FMOD5_Channel_SetMixLevelsOutput
  .cfi_endproc
/*
 * Copyright 2019-2021 Yury Gribov
 *
 * The MIT License (MIT)
 *
 * Use of this source code is governed by MIT license that can be
 * found in the LICENSE.txt file.
 */

  .globl FMOD5_Channel_SetMixMatrix
  .p2align 4
  .type FMOD5_Channel_SetMixMatrix, %function
#ifndef IMPLIB_EXPORT_SHIMS
  .hidden FMOD5_Channel_SetMixMatrix
#endif
FMOD5_Channel_SetMixMatrix:
  .cfi_startproc
  .cfi_def_cfa_offset 4  // Return address
  // add $0, %rsp  Why GDB fails to step over call without this?!
  // x86 has no support for PC-relative addressing so code is not very efficient.
  // We also trash EAX here (it's call-clobbered in cdecl).
  call __implib.x86.get_pc_thunk.ax
  addl $_GLOBAL_OFFSET_TABLE_, %eax
  movl 528+_libfmod_so_tramp_table@GOTOFF(%eax), %eax
  cmp $0, %eax
  je 2f
1:
  jmp *%eax
2:
  mov $132, %eax
  call _libfmod_so_save_regs_and_resolve
  jmp FMOD5_Channel_SetMixMatrix
  .cfi_endproc
/*
 * Copyright 2019-2021 Yury Gribov
 *
 * The MIT License (MIT)
 *
 * Use of this source code is governed by MIT license that can be
 * found in the LICENSE.txt file.
 */

  .globl FMOD5_Channel_SetMode
  .p2align 4
  .type FMOD5_Channel_SetMode, %function
#ifndef IMPLIB_EXPORT_SHIMS
  .hidden FMOD5_Channel_SetMode
#endif
FMOD5_Channel_SetMode:
  .cfi_startproc
  .cfi_def_cfa_offset 4  // Return address
  // add $0, %rsp  Why GDB fails to step over call without this?!
  // x86 has no support for PC-relative addressing so code is not very efficient.
  // We also trash EAX here (it's call-clobbered in cdecl).
  call __implib.x86.get_pc_thunk.ax
  addl $_GLOBAL_OFFSET_TABLE_, %eax
  movl 532+_libfmod_so_tramp_table@GOTOFF(%eax), %eax
  cmp $0, %eax
  je 2f
1:
  jmp *%eax
2:
  mov $133, %eax
  call _libfmod_so_save_regs_and_resolve
  jmp FMOD5_Channel_SetMode
  .cfi_endproc
/*
 * Copyright 2019-2021 Yury Gribov
 *
 * The MIT License (MIT)
 *
 * Use of this source code is governed by MIT license that can be
 * found in the LICENSE.txt file.
 */

  .globl FMOD5_Channel_SetMute
  .p2align 4
  .type FMOD5_Channel_SetMute, %function
#ifndef IMPLIB_EXPORT_SHIMS
  .hidden FMOD5_Channel_SetMute
#endif
FMOD5_Channel_SetMute:
  .cfi_startproc
  .cfi_def_cfa_offset 4  // Return address
  // add $0, %rsp  Why GDB fails to step over call without this?!
  // x86 has no support for PC-relative addressing so code is not very efficient.
  // We also trash EAX here (it's call-clobbered in cdecl).
  call __implib.x86.get_pc_thunk.ax
  addl $_GLOBAL_OFFSET_TABLE_, %eax
  movl 536+_libfmod_so_tramp_table@GOTOFF(%eax), %eax
  cmp $0, %eax
  je 2f
1:
  jmp *%eax
2:
  mov $134, %eax
  call _libfmod_so_save_regs_and_resolve
  jmp FMOD5_Channel_SetMute
  .cfi_endproc
/*
 * Copyright 2019-2021 Yury Gribov
 *
 * The MIT License (MIT)
 *
 * Use of this source code is governed by MIT license that can be
 * found in the LICENSE.txt file.
 */

  .globl FMOD5_Channel_SetPan
  .p2align 4
  .type FMOD5_Channel_SetPan, %function
#ifndef IMPLIB_EXPORT_SHIMS
  .hidden FMOD5_Channel_SetPan
#endif
FMOD5_Channel_SetPan:
  .cfi_startproc
  .cfi_def_cfa_offset 4  // Return address
  // add $0, %rsp  Why GDB fails to step over call without this?!
  // x86 has no support for PC-relative addressing so code is not very efficient.
  // We also trash EAX here (it's call-clobbered in cdecl).
  call __implib.x86.get_pc_thunk.ax
  addl $_GLOBAL_OFFSET_TABLE_, %eax
  movl 540+_libfmod_so_tramp_table@GOTOFF(%eax), %eax
  cmp $0, %eax
  je 2f
1:
  jmp *%eax
2:
  mov $135, %eax
  call _libfmod_so_save_regs_and_resolve
  jmp FMOD5_Channel_SetPan
  .cfi_endproc
/*
 * Copyright 2019-2021 Yury Gribov
 *
 * The MIT License (MIT)
 *
 * Use of this source code is governed by MIT license that can be
 * found in the LICENSE.txt file.
 */

  .globl FMOD5_Channel_SetPaused
  .p2align 4
  .type FMOD5_Channel_SetPaused, %function
#ifndef IMPLIB_EXPORT_SHIMS
  .hidden FMOD5_Channel_SetPaused
#endif
FMOD5_Channel_SetPaused:
  .cfi_startproc
  .cfi_def_cfa_offset 4  // Return address
  // add $0, %rsp  Why GDB fails to step over call without this?!
  // x86 has no support for PC-relative addressing so code is not very efficient.
  // We also trash EAX here (it's call-clobbered in cdecl).
  call __implib.x86.get_pc_thunk.ax
  addl $_GLOBAL_OFFSET_TABLE_, %eax
  movl 544+_libfmod_so_tramp_table@GOTOFF(%eax), %eax
  cmp $0, %eax
  je 2f
1:
  jmp *%eax
2:
  mov $136, %eax
  call _libfmod_so_save_regs_and_resolve
  jmp FMOD5_Channel_SetPaused
  .cfi_endproc
/*
 * Copyright 2019-2021 Yury Gribov
 *
 * The MIT License (MIT)
 *
 * Use of this source code is governed by MIT license that can be
 * found in the LICENSE.txt file.
 */

  .globl FMOD5_Channel_SetPitch
  .p2align 4
  .type FMOD5_Channel_SetPitch, %function
#ifndef IMPLIB_EXPORT_SHIMS
  .hidden FMOD5_Channel_SetPitch
#endif
FMOD5_Channel_SetPitch:
  .cfi_startproc
  .cfi_def_cfa_offset 4  // Return address
  // add $0, %rsp  Why GDB fails to step over call without this?!
  // x86 has no support for PC-relative addressing so code is not very efficient.
  // We also trash EAX here (it's call-clobbered in cdecl).
  call __implib.x86.get_pc_thunk.ax
  addl $_GLOBAL_OFFSET_TABLE_, %eax
  movl 548+_libfmod_so_tramp_table@GOTOFF(%eax), %eax
  cmp $0, %eax
  je 2f
1:
  jmp *%eax
2:
  mov $137, %eax
  call _libfmod_so_save_regs_and_resolve
  jmp FMOD5_Channel_SetPitch
  .cfi_endproc
/*
 * Copyright 2019-2021 Yury Gribov
 *
 * The MIT License (MIT)
 *
 * Use of this source code is governed by MIT license that can be
 * found in the LICENSE.txt file.
 */

  .globl FMOD5_Channel_SetPosition
  .p2align 4
  .type FMOD5_Channel_SetPosition, %function
#ifndef IMPLIB_EXPORT_SHIMS
  .hidden FMOD5_Channel_SetPosition
#endif
FMOD5_Channel_SetPosition:
  .cfi_startproc
  .cfi_def_cfa_offset 4  // Return address
  // add $0, %rsp  Why GDB fails to step over call without this?!
  // x86 has no support for PC-relative addressing so code is not very efficient.
  // We also trash EAX here (it's call-clobbered in cdecl).
  call __implib.x86.get_pc_thunk.ax
  addl $_GLOBAL_OFFSET_TABLE_, %eax
  movl 552+_libfmod_so_tramp_table@GOTOFF(%eax), %eax
  cmp $0, %eax
  je 2f
1:
  jmp *%eax
2:
  mov $138, %eax
  call _libfmod_so_save_regs_and_resolve
  jmp FMOD5_Channel_SetPosition
  .cfi_endproc
/*
 * Copyright 2019-2021 Yury Gribov
 *
 * The MIT License (MIT)
 *
 * Use of this source code is governed by MIT license that can be
 * found in the LICENSE.txt file.
 */

  .globl FMOD5_Channel_SetPriority
  .p2align 4
  .type FMOD5_Channel_SetPriority, %function
#ifndef IMPLIB_EXPORT_SHIMS
  .hidden FMOD5_Channel_SetPriority
#endif
FMOD5_Channel_SetPriority:
  .cfi_startproc
  .cfi_def_cfa_offset 4  // Return address
  // add $0, %rsp  Why GDB fails to step over call without this?!
  // x86 has no support for PC-relative addressing so code is not very efficient.
  // We also trash EAX here (it's call-clobbered in cdecl).
  call __implib.x86.get_pc_thunk.ax
  addl $_GLOBAL_OFFSET_TABLE_, %eax
  movl 556+_libfmod_so_tramp_table@GOTOFF(%eax), %eax
  cmp $0, %eax
  je 2f
1:
  jmp *%eax
2:
  mov $139, %eax
  call _libfmod_so_save_regs_and_resolve
  jmp FMOD5_Channel_SetPriority
  .cfi_endproc
/*
 * Copyright 2019-2021 Yury Gribov
 *
 * The MIT License (MIT)
 *
 * Use of this source code is governed by MIT license that can be
 * found in the LICENSE.txt file.
 */

  .globl FMOD5_Channel_SetReverbProperties
  .p2align 4
  .type FMOD5_Channel_SetReverbProperties, %function
#ifndef IMPLIB_EXPORT_SHIMS
  .hidden FMOD5_Channel_SetReverbProperties
#endif
FMOD5_Channel_SetReverbProperties:
  .cfi_startproc
  .cfi_def_cfa_offset 4  // Return address
  // add $0, %rsp  Why GDB fails to step over call without this?!
  // x86 has no support for PC-relative addressing so code is not very efficient.
  // We also trash EAX here (it's call-clobbered in cdecl).
  call __implib.x86.get_pc_thunk.ax
  addl $_GLOBAL_OFFSET_TABLE_, %eax
  movl 560+_libfmod_so_tramp_table@GOTOFF(%eax), %eax
  cmp $0, %eax
  je 2f
1:
  jmp *%eax
2:
  mov $140, %eax
  call _libfmod_so_save_regs_and_resolve
  jmp FMOD5_Channel_SetReverbProperties
  .cfi_endproc
/*
 * Copyright 2019-2021 Yury Gribov
 *
 * The MIT License (MIT)
 *
 * Use of this source code is governed by MIT license that can be
 * found in the LICENSE.txt file.
 */

  .globl FMOD5_Channel_SetUserData
  .p2align 4
  .type FMOD5_Channel_SetUserData, %function
#ifndef IMPLIB_EXPORT_SHIMS
  .hidden FMOD5_Channel_SetUserData
#endif
FMOD5_Channel_SetUserData:
  .cfi_startproc
  .cfi_def_cfa_offset 4  // Return address
  // add $0, %rsp  Why GDB fails to step over call without this?!
  // x86 has no support for PC-relative addressing so code is not very efficient.
  // We also trash EAX here (it's call-clobbered in cdecl).
  call __implib.x86.get_pc_thunk.ax
  addl $_GLOBAL_OFFSET_TABLE_, %eax
  movl 564+_libfmod_so_tramp_table@GOTOFF(%eax), %eax
  cmp $0, %eax
  je 2f
1:
  jmp *%eax
2:
  mov $141, %eax
  call _libfmod_so_save_regs_and_resolve
  jmp FMOD5_Channel_SetUserData
  .cfi_endproc
/*
 * Copyright 2019-2021 Yury Gribov
 *
 * The MIT License (MIT)
 *
 * Use of this source code is governed by MIT license that can be
 * found in the LICENSE.txt file.
 */

  .globl FMOD5_Channel_SetVolume
  .p2align 4
  .type FMOD5_Channel_SetVolume, %function
#ifndef IMPLIB_EXPORT_SHIMS
  .hidden FMOD5_Channel_SetVolume
#endif
FMOD5_Channel_SetVolume:
  .cfi_startproc
  .cfi_def_cfa_offset 4  // Return address
  // add $0, %rsp  Why GDB fails to step over call without this?!
  // x86 has no support for PC-relative addressing so code is not very efficient.
  // We also trash EAX here (it's call-clobbered in cdecl).
  call __implib.x86.get_pc_thunk.ax
  addl $_GLOBAL_OFFSET_TABLE_, %eax
  movl 568+_libfmod_so_tramp_table@GOTOFF(%eax), %eax
  cmp $0, %eax
  je 2f
1:
  jmp *%eax
2:
  mov $142, %eax
  call _libfmod_so_save_regs_and_resolve
  jmp FMOD5_Channel_SetVolume
  .cfi_endproc
/*
 * Copyright 2019-2021 Yury Gribov
 *
 * The MIT License (MIT)
 *
 * Use of this source code is governed by MIT license that can be
 * found in the LICENSE.txt file.
 */

  .globl FMOD5_Channel_SetVolumeRamp
  .p2align 4
  .type FMOD5_Channel_SetVolumeRamp, %function
#ifndef IMPLIB_EXPORT_SHIMS
  .hidden FMOD5_Channel_SetVolumeRamp
#endif
FMOD5_Channel_SetVolumeRamp:
  .cfi_startproc
  .cfi_def_cfa_offset 4  // Return address
  // add $0, %rsp  Why GDB fails to step over call without this?!
  // x86 has no support for PC-relative addressing so code is not very efficient.
  // We also trash EAX here (it's call-clobbered in cdecl).
  call __implib.x86.get_pc_thunk.ax
  addl $_GLOBAL_OFFSET_TABLE_, %eax
  movl 572+_libfmod_so_tramp_table@GOTOFF(%eax), %eax
  cmp $0, %eax
  je 2f
1:
  jmp *%eax
2:
  mov $143, %eax
  call _libfmod_so_save_regs_and_resolve
  jmp FMOD5_Channel_SetVolumeRamp
  .cfi_endproc
/*
 * Copyright 2019-2021 Yury Gribov
 *
 * The MIT License (MIT)
 *
 * Use of this source code is governed by MIT license that can be
 * found in the LICENSE.txt file.
 */

  .globl FMOD5_Channel_Stop
  .p2align 4
  .type FMOD5_Channel_Stop, %function
#ifndef IMPLIB_EXPORT_SHIMS
  .hidden FMOD5_Channel_Stop
#endif
FMOD5_Channel_Stop:
  .cfi_startproc
  .cfi_def_cfa_offset 4  // Return address
  // add $0, %rsp  Why GDB fails to step over call without this?!
  // x86 has no support for PC-relative addressing so code is not very efficient.
  // We also trash EAX here (it's call-clobbered in cdecl).
  call __implib.x86.get_pc_thunk.ax
  addl $_GLOBAL_OFFSET_TABLE_, %eax
  movl 576+_libfmod_so_tramp_table@GOTOFF(%eax), %eax
  cmp $0, %eax
  je 2f
1:
  jmp *%eax
2:
  mov $144, %eax
  call _libfmod_so_save_regs_and_resolve
  jmp FMOD5_Channel_Stop
  .cfi_endproc
/*
 * Copyright 2019-2021 Yury Gribov
 *
 * The MIT License (MIT)
 *
 * Use of this source code is governed by MIT license that can be
 * found in the LICENSE.txt file.
 */

  .globl FMOD5_DSPConnection_GetInput
  .p2align 4
  .type FMOD5_DSPConnection_GetInput, %function
#ifndef IMPLIB_EXPORT_SHIMS
  .hidden FMOD5_DSPConnection_GetInput
#endif
FMOD5_DSPConnection_GetInput:
  .cfi_startproc
  .cfi_def_cfa_offset 4  // Return address
  // add $0, %rsp  Why GDB fails to step over call without this?!
  // x86 has no support for PC-relative addressing so code is not very efficient.
  // We also trash EAX here (it's call-clobbered in cdecl).
  call __implib.x86.get_pc_thunk.ax
  addl $_GLOBAL_OFFSET_TABLE_, %eax
  movl 580+_libfmod_so_tramp_table@GOTOFF(%eax), %eax
  cmp $0, %eax
  je 2f
1:
  jmp *%eax
2:
  mov $145, %eax
  call _libfmod_so_save_regs_and_resolve
  jmp FMOD5_DSPConnection_GetInput
  .cfi_endproc
/*
 * Copyright 2019-2021 Yury Gribov
 *
 * The MIT License (MIT)
 *
 * Use of this source code is governed by MIT license that can be
 * found in the LICENSE.txt file.
 */

  .globl FMOD5_DSPConnection_GetMix
  .p2align 4
  .type FMOD5_DSPConnection_GetMix, %function
#ifndef IMPLIB_EXPORT_SHIMS
  .hidden FMOD5_DSPConnection_GetMix
#endif
FMOD5_DSPConnection_GetMix:
  .cfi_startproc
  .cfi_def_cfa_offset 4  // Return address
  // add $0, %rsp  Why GDB fails to step over call without this?!
  // x86 has no support for PC-relative addressing so code is not very efficient.
  // We also trash EAX here (it's call-clobbered in cdecl).
  call __implib.x86.get_pc_thunk.ax
  addl $_GLOBAL_OFFSET_TABLE_, %eax
  movl 584+_libfmod_so_tramp_table@GOTOFF(%eax), %eax
  cmp $0, %eax
  je 2f
1:
  jmp *%eax
2:
  mov $146, %eax
  call _libfmod_so_save_regs_and_resolve
  jmp FMOD5_DSPConnection_GetMix
  .cfi_endproc
/*
 * Copyright 2019-2021 Yury Gribov
 *
 * The MIT License (MIT)
 *
 * Use of this source code is governed by MIT license that can be
 * found in the LICENSE.txt file.
 */

  .globl FMOD5_DSPConnection_GetMixMatrix
  .p2align 4
  .type FMOD5_DSPConnection_GetMixMatrix, %function
#ifndef IMPLIB_EXPORT_SHIMS
  .hidden FMOD5_DSPConnection_GetMixMatrix
#endif
FMOD5_DSPConnection_GetMixMatrix:
  .cfi_startproc
  .cfi_def_cfa_offset 4  // Return address
  // add $0, %rsp  Why GDB fails to step over call without this?!
  // x86 has no support for PC-relative addressing so code is not very efficient.
  // We also trash EAX here (it's call-clobbered in cdecl).
  call __implib.x86.get_pc_thunk.ax
  addl $_GLOBAL_OFFSET_TABLE_, %eax
  movl 588+_libfmod_so_tramp_table@GOTOFF(%eax), %eax
  cmp $0, %eax
  je 2f
1:
  jmp *%eax
2:
  mov $147, %eax
  call _libfmod_so_save_regs_and_resolve
  jmp FMOD5_DSPConnection_GetMixMatrix
  .cfi_endproc
/*
 * Copyright 2019-2021 Yury Gribov
 *
 * The MIT License (MIT)
 *
 * Use of this source code is governed by MIT license that can be
 * found in the LICENSE.txt file.
 */

  .globl FMOD5_DSPConnection_GetOutput
  .p2align 4
  .type FMOD5_DSPConnection_GetOutput, %function
#ifndef IMPLIB_EXPORT_SHIMS
  .hidden FMOD5_DSPConnection_GetOutput
#endif
FMOD5_DSPConnection_GetOutput:
  .cfi_startproc
  .cfi_def_cfa_offset 4  // Return address
  // add $0, %rsp  Why GDB fails to step over call without this?!
  // x86 has no support for PC-relative addressing so code is not very efficient.
  // We also trash EAX here (it's call-clobbered in cdecl).
  call __implib.x86.get_pc_thunk.ax
  addl $_GLOBAL_OFFSET_TABLE_, %eax
  movl 592+_libfmod_so_tramp_table@GOTOFF(%eax), %eax
  cmp $0, %eax
  je 2f
1:
  jmp *%eax
2:
  mov $148, %eax
  call _libfmod_so_save_regs_and_resolve
  jmp FMOD5_DSPConnection_GetOutput
  .cfi_endproc
/*
 * Copyright 2019-2021 Yury Gribov
 *
 * The MIT License (MIT)
 *
 * Use of this source code is governed by MIT license that can be
 * found in the LICENSE.txt file.
 */

  .globl FMOD5_DSPConnection_GetType
  .p2align 4
  .type FMOD5_DSPConnection_GetType, %function
#ifndef IMPLIB_EXPORT_SHIMS
  .hidden FMOD5_DSPConnection_GetType
#endif
FMOD5_DSPConnection_GetType:
  .cfi_startproc
  .cfi_def_cfa_offset 4  // Return address
  // add $0, %rsp  Why GDB fails to step over call without this?!
  // x86 has no support for PC-relative addressing so code is not very efficient.
  // We also trash EAX here (it's call-clobbered in cdecl).
  call __implib.x86.get_pc_thunk.ax
  addl $_GLOBAL_OFFSET_TABLE_, %eax
  movl 596+_libfmod_so_tramp_table@GOTOFF(%eax), %eax
  cmp $0, %eax
  je 2f
1:
  jmp *%eax
2:
  mov $149, %eax
  call _libfmod_so_save_regs_and_resolve
  jmp FMOD5_DSPConnection_GetType
  .cfi_endproc
/*
 * Copyright 2019-2021 Yury Gribov
 *
 * The MIT License (MIT)
 *
 * Use of this source code is governed by MIT license that can be
 * found in the LICENSE.txt file.
 */

  .globl FMOD5_DSPConnection_GetUserData
  .p2align 4
  .type FMOD5_DSPConnection_GetUserData, %function
#ifndef IMPLIB_EXPORT_SHIMS
  .hidden FMOD5_DSPConnection_GetUserData
#endif
FMOD5_DSPConnection_GetUserData:
  .cfi_startproc
  .cfi_def_cfa_offset 4  // Return address
  // add $0, %rsp  Why GDB fails to step over call without this?!
  // x86 has no support for PC-relative addressing so code is not very efficient.
  // We also trash EAX here (it's call-clobbered in cdecl).
  call __implib.x86.get_pc_thunk.ax
  addl $_GLOBAL_OFFSET_TABLE_, %eax
  movl 600+_libfmod_so_tramp_table@GOTOFF(%eax), %eax
  cmp $0, %eax
  je 2f
1:
  jmp *%eax
2:
  mov $150, %eax
  call _libfmod_so_save_regs_and_resolve
  jmp FMOD5_DSPConnection_GetUserData
  .cfi_endproc
/*
 * Copyright 2019-2021 Yury Gribov
 *
 * The MIT License (MIT)
 *
 * Use of this source code is governed by MIT license that can be
 * found in the LICENSE.txt file.
 */

  .globl FMOD5_DSPConnection_SetMix
  .p2align 4
  .type FMOD5_DSPConnection_SetMix, %function
#ifndef IMPLIB_EXPORT_SHIMS
  .hidden FMOD5_DSPConnection_SetMix
#endif
FMOD5_DSPConnection_SetMix:
  .cfi_startproc
  .cfi_def_cfa_offset 4  // Return address
  // add $0, %rsp  Why GDB fails to step over call without this?!
  // x86 has no support for PC-relative addressing so code is not very efficient.
  // We also trash EAX here (it's call-clobbered in cdecl).
  call __implib.x86.get_pc_thunk.ax
  addl $_GLOBAL_OFFSET_TABLE_, %eax
  movl 604+_libfmod_so_tramp_table@GOTOFF(%eax), %eax
  cmp $0, %eax
  je 2f
1:
  jmp *%eax
2:
  mov $151, %eax
  call _libfmod_so_save_regs_and_resolve
  jmp FMOD5_DSPConnection_SetMix
  .cfi_endproc
/*
 * Copyright 2019-2021 Yury Gribov
 *
 * The MIT License (MIT)
 *
 * Use of this source code is governed by MIT license that can be
 * found in the LICENSE.txt file.
 */

  .globl FMOD5_DSPConnection_SetMixMatrix
  .p2align 4
  .type FMOD5_DSPConnection_SetMixMatrix, %function
#ifndef IMPLIB_EXPORT_SHIMS
  .hidden FMOD5_DSPConnection_SetMixMatrix
#endif
FMOD5_DSPConnection_SetMixMatrix:
  .cfi_startproc
  .cfi_def_cfa_offset 4  // Return address
  // add $0, %rsp  Why GDB fails to step over call without this?!
  // x86 has no support for PC-relative addressing so code is not very efficient.
  // We also trash EAX here (it's call-clobbered in cdecl).
  call __implib.x86.get_pc_thunk.ax
  addl $_GLOBAL_OFFSET_TABLE_, %eax
  movl 608+_libfmod_so_tramp_table@GOTOFF(%eax), %eax
  cmp $0, %eax
  je 2f
1:
  jmp *%eax
2:
  mov $152, %eax
  call _libfmod_so_save_regs_and_resolve
  jmp FMOD5_DSPConnection_SetMixMatrix
  .cfi_endproc
/*
 * Copyright 2019-2021 Yury Gribov
 *
 * The MIT License (MIT)
 *
 * Use of this source code is governed by MIT license that can be
 * found in the LICENSE.txt file.
 */

  .globl FMOD5_DSPConnection_SetUserData
  .p2align 4
  .type FMOD5_DSPConnection_SetUserData, %function
#ifndef IMPLIB_EXPORT_SHIMS
  .hidden FMOD5_DSPConnection_SetUserData
#endif
FMOD5_DSPConnection_SetUserData:
  .cfi_startproc
  .cfi_def_cfa_offset 4  // Return address
  // add $0, %rsp  Why GDB fails to step over call without this?!
  // x86 has no support for PC-relative addressing so code is not very efficient.
  // We also trash EAX here (it's call-clobbered in cdecl).
  call __implib.x86.get_pc_thunk.ax
  addl $_GLOBAL_OFFSET_TABLE_, %eax
  movl 612+_libfmod_so_tramp_table@GOTOFF(%eax), %eax
  cmp $0, %eax
  je 2f
1:
  jmp *%eax
2:
  mov $153, %eax
  call _libfmod_so_save_regs_and_resolve
  jmp FMOD5_DSPConnection_SetUserData
  .cfi_endproc
/*
 * Copyright 2019-2021 Yury Gribov
 *
 * The MIT License (MIT)
 *
 * Use of this source code is governed by MIT license that can be
 * found in the LICENSE.txt file.
 */

  .globl FMOD5_DSP_AddInput
  .p2align 4
  .type FMOD5_DSP_AddInput, %function
#ifndef IMPLIB_EXPORT_SHIMS
  .hidden FMOD5_DSP_AddInput
#endif
FMOD5_DSP_AddInput:
  .cfi_startproc
  .cfi_def_cfa_offset 4  // Return address
  // add $0, %rsp  Why GDB fails to step over call without this?!
  // x86 has no support for PC-relative addressing so code is not very efficient.
  // We also trash EAX here (it's call-clobbered in cdecl).
  call __implib.x86.get_pc_thunk.ax
  addl $_GLOBAL_OFFSET_TABLE_, %eax
  movl 616+_libfmod_so_tramp_table@GOTOFF(%eax), %eax
  cmp $0, %eax
  je 2f
1:
  jmp *%eax
2:
  mov $154, %eax
  call _libfmod_so_save_regs_and_resolve
  jmp FMOD5_DSP_AddInput
  .cfi_endproc
/*
 * Copyright 2019-2021 Yury Gribov
 *
 * The MIT License (MIT)
 *
 * Use of this source code is governed by MIT license that can be
 * found in the LICENSE.txt file.
 */

  .globl FMOD5_DSP_DisconnectAll
  .p2align 4
  .type FMOD5_DSP_DisconnectAll, %function
#ifndef IMPLIB_EXPORT_SHIMS
  .hidden FMOD5_DSP_DisconnectAll
#endif
FMOD5_DSP_DisconnectAll:
  .cfi_startproc
  .cfi_def_cfa_offset 4  // Return address
  // add $0, %rsp  Why GDB fails to step over call without this?!
  // x86 has no support for PC-relative addressing so code is not very efficient.
  // We also trash EAX here (it's call-clobbered in cdecl).
  call __implib.x86.get_pc_thunk.ax
  addl $_GLOBAL_OFFSET_TABLE_, %eax
  movl 620+_libfmod_so_tramp_table@GOTOFF(%eax), %eax
  cmp $0, %eax
  je 2f
1:
  jmp *%eax
2:
  mov $155, %eax
  call _libfmod_so_save_regs_and_resolve
  jmp FMOD5_DSP_DisconnectAll
  .cfi_endproc
/*
 * Copyright 2019-2021 Yury Gribov
 *
 * The MIT License (MIT)
 *
 * Use of this source code is governed by MIT license that can be
 * found in the LICENSE.txt file.
 */

  .globl FMOD5_DSP_DisconnectFrom
  .p2align 4
  .type FMOD5_DSP_DisconnectFrom, %function
#ifndef IMPLIB_EXPORT_SHIMS
  .hidden FMOD5_DSP_DisconnectFrom
#endif
FMOD5_DSP_DisconnectFrom:
  .cfi_startproc
  .cfi_def_cfa_offset 4  // Return address
  // add $0, %rsp  Why GDB fails to step over call without this?!
  // x86 has no support for PC-relative addressing so code is not very efficient.
  // We also trash EAX here (it's call-clobbered in cdecl).
  call __implib.x86.get_pc_thunk.ax
  addl $_GLOBAL_OFFSET_TABLE_, %eax
  movl 624+_libfmod_so_tramp_table@GOTOFF(%eax), %eax
  cmp $0, %eax
  je 2f
1:
  jmp *%eax
2:
  mov $156, %eax
  call _libfmod_so_save_regs_and_resolve
  jmp FMOD5_DSP_DisconnectFrom
  .cfi_endproc
/*
 * Copyright 2019-2021 Yury Gribov
 *
 * The MIT License (MIT)
 *
 * Use of this source code is governed by MIT license that can be
 * found in the LICENSE.txt file.
 */

  .globl FMOD5_DSP_GetActive
  .p2align 4
  .type FMOD5_DSP_GetActive, %function
#ifndef IMPLIB_EXPORT_SHIMS
  .hidden FMOD5_DSP_GetActive
#endif
FMOD5_DSP_GetActive:
  .cfi_startproc
  .cfi_def_cfa_offset 4  // Return address
  // add $0, %rsp  Why GDB fails to step over call without this?!
  // x86 has no support for PC-relative addressing so code is not very efficient.
  // We also trash EAX here (it's call-clobbered in cdecl).
  call __implib.x86.get_pc_thunk.ax
  addl $_GLOBAL_OFFSET_TABLE_, %eax
  movl 628+_libfmod_so_tramp_table@GOTOFF(%eax), %eax
  cmp $0, %eax
  je 2f
1:
  jmp *%eax
2:
  mov $157, %eax
  call _libfmod_so_save_regs_and_resolve
  jmp FMOD5_DSP_GetActive
  .cfi_endproc
/*
 * Copyright 2019-2021 Yury Gribov
 *
 * The MIT License (MIT)
 *
 * Use of this source code is governed by MIT license that can be
 * found in the LICENSE.txt file.
 */

  .globl FMOD5_DSP_GetBypass
  .p2align 4
  .type FMOD5_DSP_GetBypass, %function
#ifndef IMPLIB_EXPORT_SHIMS
  .hidden FMOD5_DSP_GetBypass
#endif
FMOD5_DSP_GetBypass:
  .cfi_startproc
  .cfi_def_cfa_offset 4  // Return address
  // add $0, %rsp  Why GDB fails to step over call without this?!
  // x86 has no support for PC-relative addressing so code is not very efficient.
  // We also trash EAX here (it's call-clobbered in cdecl).
  call __implib.x86.get_pc_thunk.ax
  addl $_GLOBAL_OFFSET_TABLE_, %eax
  movl 632+_libfmod_so_tramp_table@GOTOFF(%eax), %eax
  cmp $0, %eax
  je 2f
1:
  jmp *%eax
2:
  mov $158, %eax
  call _libfmod_so_save_regs_and_resolve
  jmp FMOD5_DSP_GetBypass
  .cfi_endproc
/*
 * Copyright 2019-2021 Yury Gribov
 *
 * The MIT License (MIT)
 *
 * Use of this source code is governed by MIT license that can be
 * found in the LICENSE.txt file.
 */

  .globl FMOD5_DSP_GetCPUUsage
  .p2align 4
  .type FMOD5_DSP_GetCPUUsage, %function
#ifndef IMPLIB_EXPORT_SHIMS
  .hidden FMOD5_DSP_GetCPUUsage
#endif
FMOD5_DSP_GetCPUUsage:
  .cfi_startproc
  .cfi_def_cfa_offset 4  // Return address
  // add $0, %rsp  Why GDB fails to step over call without this?!
  // x86 has no support for PC-relative addressing so code is not very efficient.
  // We also trash EAX here (it's call-clobbered in cdecl).
  call __implib.x86.get_pc_thunk.ax
  addl $_GLOBAL_OFFSET_TABLE_, %eax
  movl 636+_libfmod_so_tramp_table@GOTOFF(%eax), %eax
  cmp $0, %eax
  je 2f
1:
  jmp *%eax
2:
  mov $159, %eax
  call _libfmod_so_save_regs_and_resolve
  jmp FMOD5_DSP_GetCPUUsage
  .cfi_endproc
/*
 * Copyright 2019-2021 Yury Gribov
 *
 * The MIT License (MIT)
 *
 * Use of this source code is governed by MIT license that can be
 * found in the LICENSE.txt file.
 */

  .globl FMOD5_DSP_GetChannelFormat
  .p2align 4
  .type FMOD5_DSP_GetChannelFormat, %function
#ifndef IMPLIB_EXPORT_SHIMS
  .hidden FMOD5_DSP_GetChannelFormat
#endif
FMOD5_DSP_GetChannelFormat:
  .cfi_startproc
  .cfi_def_cfa_offset 4  // Return address
  // add $0, %rsp  Why GDB fails to step over call without this?!
  // x86 has no support for PC-relative addressing so code is not very efficient.
  // We also trash EAX here (it's call-clobbered in cdecl).
  call __implib.x86.get_pc_thunk.ax
  addl $_GLOBAL_OFFSET_TABLE_, %eax
  movl 640+_libfmod_so_tramp_table@GOTOFF(%eax), %eax
  cmp $0, %eax
  je 2f
1:
  jmp *%eax
2:
  mov $160, %eax
  call _libfmod_so_save_regs_and_resolve
  jmp FMOD5_DSP_GetChannelFormat
  .cfi_endproc
/*
 * Copyright 2019-2021 Yury Gribov
 *
 * The MIT License (MIT)
 *
 * Use of this source code is governed by MIT license that can be
 * found in the LICENSE.txt file.
 */

  .globl FMOD5_DSP_GetDataParameterIndex
  .p2align 4
  .type FMOD5_DSP_GetDataParameterIndex, %function
#ifndef IMPLIB_EXPORT_SHIMS
  .hidden FMOD5_DSP_GetDataParameterIndex
#endif
FMOD5_DSP_GetDataParameterIndex:
  .cfi_startproc
  .cfi_def_cfa_offset 4  // Return address
  // add $0, %rsp  Why GDB fails to step over call without this?!
  // x86 has no support for PC-relative addressing so code is not very efficient.
  // We also trash EAX here (it's call-clobbered in cdecl).
  call __implib.x86.get_pc_thunk.ax
  addl $_GLOBAL_OFFSET_TABLE_, %eax
  movl 644+_libfmod_so_tramp_table@GOTOFF(%eax), %eax
  cmp $0, %eax
  je 2f
1:
  jmp *%eax
2:
  mov $161, %eax
  call _libfmod_so_save_regs_and_resolve
  jmp FMOD5_DSP_GetDataParameterIndex
  .cfi_endproc
/*
 * Copyright 2019-2021 Yury Gribov
 *
 * The MIT License (MIT)
 *
 * Use of this source code is governed by MIT license that can be
 * found in the LICENSE.txt file.
 */

  .globl FMOD5_DSP_GetIdle
  .p2align 4
  .type FMOD5_DSP_GetIdle, %function
#ifndef IMPLIB_EXPORT_SHIMS
  .hidden FMOD5_DSP_GetIdle
#endif
FMOD5_DSP_GetIdle:
  .cfi_startproc
  .cfi_def_cfa_offset 4  // Return address
  // add $0, %rsp  Why GDB fails to step over call without this?!
  // x86 has no support for PC-relative addressing so code is not very efficient.
  // We also trash EAX here (it's call-clobbered in cdecl).
  call __implib.x86.get_pc_thunk.ax
  addl $_GLOBAL_OFFSET_TABLE_, %eax
  movl 648+_libfmod_so_tramp_table@GOTOFF(%eax), %eax
  cmp $0, %eax
  je 2f
1:
  jmp *%eax
2:
  mov $162, %eax
  call _libfmod_so_save_regs_and_resolve
  jmp FMOD5_DSP_GetIdle
  .cfi_endproc
/*
 * Copyright 2019-2021 Yury Gribov
 *
 * The MIT License (MIT)
 *
 * Use of this source code is governed by MIT license that can be
 * found in the LICENSE.txt file.
 */

  .globl FMOD5_DSP_GetInfo
  .p2align 4
  .type FMOD5_DSP_GetInfo, %function
#ifndef IMPLIB_EXPORT_SHIMS
  .hidden FMOD5_DSP_GetInfo
#endif
FMOD5_DSP_GetInfo:
  .cfi_startproc
  .cfi_def_cfa_offset 4  // Return address
  // add $0, %rsp  Why GDB fails to step over call without this?!
  // x86 has no support for PC-relative addressing so code is not very efficient.
  // We also trash EAX here (it's call-clobbered in cdecl).
  call __implib.x86.get_pc_thunk.ax
  addl $_GLOBAL_OFFSET_TABLE_, %eax
  movl 652+_libfmod_so_tramp_table@GOTOFF(%eax), %eax
  cmp $0, %eax
  je 2f
1:
  jmp *%eax
2:
  mov $163, %eax
  call _libfmod_so_save_regs_and_resolve
  jmp FMOD5_DSP_GetInfo
  .cfi_endproc
/*
 * Copyright 2019-2021 Yury Gribov
 *
 * The MIT License (MIT)
 *
 * Use of this source code is governed by MIT license that can be
 * found in the LICENSE.txt file.
 */

  .globl FMOD5_DSP_GetInput
  .p2align 4
  .type FMOD5_DSP_GetInput, %function
#ifndef IMPLIB_EXPORT_SHIMS
  .hidden FMOD5_DSP_GetInput
#endif
FMOD5_DSP_GetInput:
  .cfi_startproc
  .cfi_def_cfa_offset 4  // Return address
  // add $0, %rsp  Why GDB fails to step over call without this?!
  // x86 has no support for PC-relative addressing so code is not very efficient.
  // We also trash EAX here (it's call-clobbered in cdecl).
  call __implib.x86.get_pc_thunk.ax
  addl $_GLOBAL_OFFSET_TABLE_, %eax
  movl 656+_libfmod_so_tramp_table@GOTOFF(%eax), %eax
  cmp $0, %eax
  je 2f
1:
  jmp *%eax
2:
  mov $164, %eax
  call _libfmod_so_save_regs_and_resolve
  jmp FMOD5_DSP_GetInput
  .cfi_endproc
/*
 * Copyright 2019-2021 Yury Gribov
 *
 * The MIT License (MIT)
 *
 * Use of this source code is governed by MIT license that can be
 * found in the LICENSE.txt file.
 */

  .globl FMOD5_DSP_GetMeteringEnabled
  .p2align 4
  .type FMOD5_DSP_GetMeteringEnabled, %function
#ifndef IMPLIB_EXPORT_SHIMS
  .hidden FMOD5_DSP_GetMeteringEnabled
#endif
FMOD5_DSP_GetMeteringEnabled:
  .cfi_startproc
  .cfi_def_cfa_offset 4  // Return address
  // add $0, %rsp  Why GDB fails to step over call without this?!
  // x86 has no support for PC-relative addressing so code is not very efficient.
  // We also trash EAX here (it's call-clobbered in cdecl).
  call __implib.x86.get_pc_thunk.ax
  addl $_GLOBAL_OFFSET_TABLE_, %eax
  movl 660+_libfmod_so_tramp_table@GOTOFF(%eax), %eax
  cmp $0, %eax
  je 2f
1:
  jmp *%eax
2:
  mov $165, %eax
  call _libfmod_so_save_regs_and_resolve
  jmp FMOD5_DSP_GetMeteringEnabled
  .cfi_endproc
/*
 * Copyright 2019-2021 Yury Gribov
 *
 * The MIT License (MIT)
 *
 * Use of this source code is governed by MIT license that can be
 * found in the LICENSE.txt file.
 */

  .globl FMOD5_DSP_GetMeteringInfo
  .p2align 4
  .type FMOD5_DSP_GetMeteringInfo, %function
#ifndef IMPLIB_EXPORT_SHIMS
  .hidden FMOD5_DSP_GetMeteringInfo
#endif
FMOD5_DSP_GetMeteringInfo:
  .cfi_startproc
  .cfi_def_cfa_offset 4  // Return address
  // add $0, %rsp  Why GDB fails to step over call without this?!
  // x86 has no support for PC-relative addressing so code is not very efficient.
  // We also trash EAX here (it's call-clobbered in cdecl).
  call __implib.x86.get_pc_thunk.ax
  addl $_GLOBAL_OFFSET_TABLE_, %eax
  movl 664+_libfmod_so_tramp_table@GOTOFF(%eax), %eax
  cmp $0, %eax
  je 2f
1:
  jmp *%eax
2:
  mov $166, %eax
  call _libfmod_so_save_regs_and_resolve
  jmp FMOD5_DSP_GetMeteringInfo
  .cfi_endproc
/*
 * Copyright 2019-2021 Yury Gribov
 *
 * The MIT License (MIT)
 *
 * Use of this source code is governed by MIT license that can be
 * found in the LICENSE.txt file.
 */

  .globl FMOD5_DSP_GetNumInputs
  .p2align 4
  .type FMOD5_DSP_GetNumInputs, %function
#ifndef IMPLIB_EXPORT_SHIMS
  .hidden FMOD5_DSP_GetNumInputs
#endif
FMOD5_DSP_GetNumInputs:
  .cfi_startproc
  .cfi_def_cfa_offset 4  // Return address
  // add $0, %rsp  Why GDB fails to step over call without this?!
  // x86 has no support for PC-relative addressing so code is not very efficient.
  // We also trash EAX here (it's call-clobbered in cdecl).
  call __implib.x86.get_pc_thunk.ax
  addl $_GLOBAL_OFFSET_TABLE_, %eax
  movl 668+_libfmod_so_tramp_table@GOTOFF(%eax), %eax
  cmp $0, %eax
  je 2f
1:
  jmp *%eax
2:
  mov $167, %eax
  call _libfmod_so_save_regs_and_resolve
  jmp FMOD5_DSP_GetNumInputs
  .cfi_endproc
/*
 * Copyright 2019-2021 Yury Gribov
 *
 * The MIT License (MIT)
 *
 * Use of this source code is governed by MIT license that can be
 * found in the LICENSE.txt file.
 */

  .globl FMOD5_DSP_GetNumOutputs
  .p2align 4
  .type FMOD5_DSP_GetNumOutputs, %function
#ifndef IMPLIB_EXPORT_SHIMS
  .hidden FMOD5_DSP_GetNumOutputs
#endif
FMOD5_DSP_GetNumOutputs:
  .cfi_startproc
  .cfi_def_cfa_offset 4  // Return address
  // add $0, %rsp  Why GDB fails to step over call without this?!
  // x86 has no support for PC-relative addressing so code is not very efficient.
  // We also trash EAX here (it's call-clobbered in cdecl).
  call __implib.x86.get_pc_thunk.ax
  addl $_GLOBAL_OFFSET_TABLE_, %eax
  movl 672+_libfmod_so_tramp_table@GOTOFF(%eax), %eax
  cmp $0, %eax
  je 2f
1:
  jmp *%eax
2:
  mov $168, %eax
  call _libfmod_so_save_regs_and_resolve
  jmp FMOD5_DSP_GetNumOutputs
  .cfi_endproc
/*
 * Copyright 2019-2021 Yury Gribov
 *
 * The MIT License (MIT)
 *
 * Use of this source code is governed by MIT license that can be
 * found in the LICENSE.txt file.
 */

  .globl FMOD5_DSP_GetNumParameters
  .p2align 4
  .type FMOD5_DSP_GetNumParameters, %function
#ifndef IMPLIB_EXPORT_SHIMS
  .hidden FMOD5_DSP_GetNumParameters
#endif
FMOD5_DSP_GetNumParameters:
  .cfi_startproc
  .cfi_def_cfa_offset 4  // Return address
  // add $0, %rsp  Why GDB fails to step over call without this?!
  // x86 has no support for PC-relative addressing so code is not very efficient.
  // We also trash EAX here (it's call-clobbered in cdecl).
  call __implib.x86.get_pc_thunk.ax
  addl $_GLOBAL_OFFSET_TABLE_, %eax
  movl 676+_libfmod_so_tramp_table@GOTOFF(%eax), %eax
  cmp $0, %eax
  je 2f
1:
  jmp *%eax
2:
  mov $169, %eax
  call _libfmod_so_save_regs_and_resolve
  jmp FMOD5_DSP_GetNumParameters
  .cfi_endproc
/*
 * Copyright 2019-2021 Yury Gribov
 *
 * The MIT License (MIT)
 *
 * Use of this source code is governed by MIT license that can be
 * found in the LICENSE.txt file.
 */

  .globl FMOD5_DSP_GetOutput
  .p2align 4
  .type FMOD5_DSP_GetOutput, %function
#ifndef IMPLIB_EXPORT_SHIMS
  .hidden FMOD5_DSP_GetOutput
#endif
FMOD5_DSP_GetOutput:
  .cfi_startproc
  .cfi_def_cfa_offset 4  // Return address
  // add $0, %rsp  Why GDB fails to step over call without this?!
  // x86 has no support for PC-relative addressing so code is not very efficient.
  // We also trash EAX here (it's call-clobbered in cdecl).
  call __implib.x86.get_pc_thunk.ax
  addl $_GLOBAL_OFFSET_TABLE_, %eax
  movl 680+_libfmod_so_tramp_table@GOTOFF(%eax), %eax
  cmp $0, %eax
  je 2f
1:
  jmp *%eax
2:
  mov $170, %eax
  call _libfmod_so_save_regs_and_resolve
  jmp FMOD5_DSP_GetOutput
  .cfi_endproc
/*
 * Copyright 2019-2021 Yury Gribov
 *
 * The MIT License (MIT)
 *
 * Use of this source code is governed by MIT license that can be
 * found in the LICENSE.txt file.
 */

  .globl FMOD5_DSP_GetOutputChannelFormat
  .p2align 4
  .type FMOD5_DSP_GetOutputChannelFormat, %function
#ifndef IMPLIB_EXPORT_SHIMS
  .hidden FMOD5_DSP_GetOutputChannelFormat
#endif
FMOD5_DSP_GetOutputChannelFormat:
  .cfi_startproc
  .cfi_def_cfa_offset 4  // Return address
  // add $0, %rsp  Why GDB fails to step over call without this?!
  // x86 has no support for PC-relative addressing so code is not very efficient.
  // We also trash EAX here (it's call-clobbered in cdecl).
  call __implib.x86.get_pc_thunk.ax
  addl $_GLOBAL_OFFSET_TABLE_, %eax
  movl 684+_libfmod_so_tramp_table@GOTOFF(%eax), %eax
  cmp $0, %eax
  je 2f
1:
  jmp *%eax
2:
  mov $171, %eax
  call _libfmod_so_save_regs_and_resolve
  jmp FMOD5_DSP_GetOutputChannelFormat
  .cfi_endproc
/*
 * Copyright 2019-2021 Yury Gribov
 *
 * The MIT License (MIT)
 *
 * Use of this source code is governed by MIT license that can be
 * found in the LICENSE.txt file.
 */

  .globl FMOD5_DSP_GetParameterBool
  .p2align 4
  .type FMOD5_DSP_GetParameterBool, %function
#ifndef IMPLIB_EXPORT_SHIMS
  .hidden FMOD5_DSP_GetParameterBool
#endif
FMOD5_DSP_GetParameterBool:
  .cfi_startproc
  .cfi_def_cfa_offset 4  // Return address
  // add $0, %rsp  Why GDB fails to step over call without this?!
  // x86 has no support for PC-relative addressing so code is not very efficient.
  // We also trash EAX here (it's call-clobbered in cdecl).
  call __implib.x86.get_pc_thunk.ax
  addl $_GLOBAL_OFFSET_TABLE_, %eax
  movl 688+_libfmod_so_tramp_table@GOTOFF(%eax), %eax
  cmp $0, %eax
  je 2f
1:
  jmp *%eax
2:
  mov $172, %eax
  call _libfmod_so_save_regs_and_resolve
  jmp FMOD5_DSP_GetParameterBool
  .cfi_endproc
/*
 * Copyright 2019-2021 Yury Gribov
 *
 * The MIT License (MIT)
 *
 * Use of this source code is governed by MIT license that can be
 * found in the LICENSE.txt file.
 */

  .globl FMOD5_DSP_GetParameterData
  .p2align 4
  .type FMOD5_DSP_GetParameterData, %function
#ifndef IMPLIB_EXPORT_SHIMS
  .hidden FMOD5_DSP_GetParameterData
#endif
FMOD5_DSP_GetParameterData:
  .cfi_startproc
  .cfi_def_cfa_offset 4  // Return address
  // add $0, %rsp  Why GDB fails to step over call without this?!
  // x86 has no support for PC-relative addressing so code is not very efficient.
  // We also trash EAX here (it's call-clobbered in cdecl).
  call __implib.x86.get_pc_thunk.ax
  addl $_GLOBAL_OFFSET_TABLE_, %eax
  movl 692+_libfmod_so_tramp_table@GOTOFF(%eax), %eax
  cmp $0, %eax
  je 2f
1:
  jmp *%eax
2:
  mov $173, %eax
  call _libfmod_so_save_regs_and_resolve
  jmp FMOD5_DSP_GetParameterData
  .cfi_endproc
/*
 * Copyright 2019-2021 Yury Gribov
 *
 * The MIT License (MIT)
 *
 * Use of this source code is governed by MIT license that can be
 * found in the LICENSE.txt file.
 */

  .globl FMOD5_DSP_GetParameterFloat
  .p2align 4
  .type FMOD5_DSP_GetParameterFloat, %function
#ifndef IMPLIB_EXPORT_SHIMS
  .hidden FMOD5_DSP_GetParameterFloat
#endif
FMOD5_DSP_GetParameterFloat:
  .cfi_startproc
  .cfi_def_cfa_offset 4  // Return address
  // add $0, %rsp  Why GDB fails to step over call without this?!
  // x86 has no support for PC-relative addressing so code is not very efficient.
  // We also trash EAX here (it's call-clobbered in cdecl).
  call __implib.x86.get_pc_thunk.ax
  addl $_GLOBAL_OFFSET_TABLE_, %eax
  movl 696+_libfmod_so_tramp_table@GOTOFF(%eax), %eax
  cmp $0, %eax
  je 2f
1:
  jmp *%eax
2:
  mov $174, %eax
  call _libfmod_so_save_regs_and_resolve
  jmp FMOD5_DSP_GetParameterFloat
  .cfi_endproc
/*
 * Copyright 2019-2021 Yury Gribov
 *
 * The MIT License (MIT)
 *
 * Use of this source code is governed by MIT license that can be
 * found in the LICENSE.txt file.
 */

  .globl FMOD5_DSP_GetParameterInfo
  .p2align 4
  .type FMOD5_DSP_GetParameterInfo, %function
#ifndef IMPLIB_EXPORT_SHIMS
  .hidden FMOD5_DSP_GetParameterInfo
#endif
FMOD5_DSP_GetParameterInfo:
  .cfi_startproc
  .cfi_def_cfa_offset 4  // Return address
  // add $0, %rsp  Why GDB fails to step over call without this?!
  // x86 has no support for PC-relative addressing so code is not very efficient.
  // We also trash EAX here (it's call-clobbered in cdecl).
  call __implib.x86.get_pc_thunk.ax
  addl $_GLOBAL_OFFSET_TABLE_, %eax
  movl 700+_libfmod_so_tramp_table@GOTOFF(%eax), %eax
  cmp $0, %eax
  je 2f
1:
  jmp *%eax
2:
  mov $175, %eax
  call _libfmod_so_save_regs_and_resolve
  jmp FMOD5_DSP_GetParameterInfo
  .cfi_endproc
/*
 * Copyright 2019-2021 Yury Gribov
 *
 * The MIT License (MIT)
 *
 * Use of this source code is governed by MIT license that can be
 * found in the LICENSE.txt file.
 */

  .globl FMOD5_DSP_GetParameterInt
  .p2align 4
  .type FMOD5_DSP_GetParameterInt, %function
#ifndef IMPLIB_EXPORT_SHIMS
  .hidden FMOD5_DSP_GetParameterInt
#endif
FMOD5_DSP_GetParameterInt:
  .cfi_startproc
  .cfi_def_cfa_offset 4  // Return address
  // add $0, %rsp  Why GDB fails to step over call without this?!
  // x86 has no support for PC-relative addressing so code is not very efficient.
  // We also trash EAX here (it's call-clobbered in cdecl).
  call __implib.x86.get_pc_thunk.ax
  addl $_GLOBAL_OFFSET_TABLE_, %eax
  movl 704+_libfmod_so_tramp_table@GOTOFF(%eax), %eax
  cmp $0, %eax
  je 2f
1:
  jmp *%eax
2:
  mov $176, %eax
  call _libfmod_so_save_regs_and_resolve
  jmp FMOD5_DSP_GetParameterInt
  .cfi_endproc
/*
 * Copyright 2019-2021 Yury Gribov
 *
 * The MIT License (MIT)
 *
 * Use of this source code is governed by MIT license that can be
 * found in the LICENSE.txt file.
 */

  .globl FMOD5_DSP_GetSystemObject
  .p2align 4
  .type FMOD5_DSP_GetSystemObject, %function
#ifndef IMPLIB_EXPORT_SHIMS
  .hidden FMOD5_DSP_GetSystemObject
#endif
FMOD5_DSP_GetSystemObject:
  .cfi_startproc
  .cfi_def_cfa_offset 4  // Return address
  // add $0, %rsp  Why GDB fails to step over call without this?!
  // x86 has no support for PC-relative addressing so code is not very efficient.
  // We also trash EAX here (it's call-clobbered in cdecl).
  call __implib.x86.get_pc_thunk.ax
  addl $_GLOBAL_OFFSET_TABLE_, %eax
  movl 708+_libfmod_so_tramp_table@GOTOFF(%eax), %eax
  cmp $0, %eax
  je 2f
1:
  jmp *%eax
2:
  mov $177, %eax
  call _libfmod_so_save_regs_and_resolve
  jmp FMOD5_DSP_GetSystemObject
  .cfi_endproc
/*
 * Copyright 2019-2021 Yury Gribov
 *
 * The MIT License (MIT)
 *
 * Use of this source code is governed by MIT license that can be
 * found in the LICENSE.txt file.
 */

  .globl FMOD5_DSP_GetType
  .p2align 4
  .type FMOD5_DSP_GetType, %function
#ifndef IMPLIB_EXPORT_SHIMS
  .hidden FMOD5_DSP_GetType
#endif
FMOD5_DSP_GetType:
  .cfi_startproc
  .cfi_def_cfa_offset 4  // Return address
  // add $0, %rsp  Why GDB fails to step over call without this?!
  // x86 has no support for PC-relative addressing so code is not very efficient.
  // We also trash EAX here (it's call-clobbered in cdecl).
  call __implib.x86.get_pc_thunk.ax
  addl $_GLOBAL_OFFSET_TABLE_, %eax
  movl 712+_libfmod_so_tramp_table@GOTOFF(%eax), %eax
  cmp $0, %eax
  je 2f
1:
  jmp *%eax
2:
  mov $178, %eax
  call _libfmod_so_save_regs_and_resolve
  jmp FMOD5_DSP_GetType
  .cfi_endproc
/*
 * Copyright 2019-2021 Yury Gribov
 *
 * The MIT License (MIT)
 *
 * Use of this source code is governed by MIT license that can be
 * found in the LICENSE.txt file.
 */

  .globl FMOD5_DSP_GetUserData
  .p2align 4
  .type FMOD5_DSP_GetUserData, %function
#ifndef IMPLIB_EXPORT_SHIMS
  .hidden FMOD5_DSP_GetUserData
#endif
FMOD5_DSP_GetUserData:
  .cfi_startproc
  .cfi_def_cfa_offset 4  // Return address
  // add $0, %rsp  Why GDB fails to step over call without this?!
  // x86 has no support for PC-relative addressing so code is not very efficient.
  // We also trash EAX here (it's call-clobbered in cdecl).
  call __implib.x86.get_pc_thunk.ax
  addl $_GLOBAL_OFFSET_TABLE_, %eax
  movl 716+_libfmod_so_tramp_table@GOTOFF(%eax), %eax
  cmp $0, %eax
  je 2f
1:
  jmp *%eax
2:
  mov $179, %eax
  call _libfmod_so_save_regs_and_resolve
  jmp FMOD5_DSP_GetUserData
  .cfi_endproc
/*
 * Copyright 2019-2021 Yury Gribov
 *
 * The MIT License (MIT)
 *
 * Use of this source code is governed by MIT license that can be
 * found in the LICENSE.txt file.
 */

  .globl FMOD5_DSP_GetWetDryMix
  .p2align 4
  .type FMOD5_DSP_GetWetDryMix, %function
#ifndef IMPLIB_EXPORT_SHIMS
  .hidden FMOD5_DSP_GetWetDryMix
#endif
FMOD5_DSP_GetWetDryMix:
  .cfi_startproc
  .cfi_def_cfa_offset 4  // Return address
  // add $0, %rsp  Why GDB fails to step over call without this?!
  // x86 has no support for PC-relative addressing so code is not very efficient.
  // We also trash EAX here (it's call-clobbered in cdecl).
  call __implib.x86.get_pc_thunk.ax
  addl $_GLOBAL_OFFSET_TABLE_, %eax
  movl 720+_libfmod_so_tramp_table@GOTOFF(%eax), %eax
  cmp $0, %eax
  je 2f
1:
  jmp *%eax
2:
  mov $180, %eax
  call _libfmod_so_save_regs_and_resolve
  jmp FMOD5_DSP_GetWetDryMix
  .cfi_endproc
/*
 * Copyright 2019-2021 Yury Gribov
 *
 * The MIT License (MIT)
 *
 * Use of this source code is governed by MIT license that can be
 * found in the LICENSE.txt file.
 */

  .globl FMOD5_DSP_Release
  .p2align 4
  .type FMOD5_DSP_Release, %function
#ifndef IMPLIB_EXPORT_SHIMS
  .hidden FMOD5_DSP_Release
#endif
FMOD5_DSP_Release:
  .cfi_startproc
  .cfi_def_cfa_offset 4  // Return address
  // add $0, %rsp  Why GDB fails to step over call without this?!
  // x86 has no support for PC-relative addressing so code is not very efficient.
  // We also trash EAX here (it's call-clobbered in cdecl).
  call __implib.x86.get_pc_thunk.ax
  addl $_GLOBAL_OFFSET_TABLE_, %eax
  movl 724+_libfmod_so_tramp_table@GOTOFF(%eax), %eax
  cmp $0, %eax
  je 2f
1:
  jmp *%eax
2:
  mov $181, %eax
  call _libfmod_so_save_regs_and_resolve
  jmp FMOD5_DSP_Release
  .cfi_endproc
/*
 * Copyright 2019-2021 Yury Gribov
 *
 * The MIT License (MIT)
 *
 * Use of this source code is governed by MIT license that can be
 * found in the LICENSE.txt file.
 */

  .globl FMOD5_DSP_Reset
  .p2align 4
  .type FMOD5_DSP_Reset, %function
#ifndef IMPLIB_EXPORT_SHIMS
  .hidden FMOD5_DSP_Reset
#endif
FMOD5_DSP_Reset:
  .cfi_startproc
  .cfi_def_cfa_offset 4  // Return address
  // add $0, %rsp  Why GDB fails to step over call without this?!
  // x86 has no support for PC-relative addressing so code is not very efficient.
  // We also trash EAX here (it's call-clobbered in cdecl).
  call __implib.x86.get_pc_thunk.ax
  addl $_GLOBAL_OFFSET_TABLE_, %eax
  movl 728+_libfmod_so_tramp_table@GOTOFF(%eax), %eax
  cmp $0, %eax
  je 2f
1:
  jmp *%eax
2:
  mov $182, %eax
  call _libfmod_so_save_regs_and_resolve
  jmp FMOD5_DSP_Reset
  .cfi_endproc
/*
 * Copyright 2019-2021 Yury Gribov
 *
 * The MIT License (MIT)
 *
 * Use of this source code is governed by MIT license that can be
 * found in the LICENSE.txt file.
 */

  .globl FMOD5_DSP_SetActive
  .p2align 4
  .type FMOD5_DSP_SetActive, %function
#ifndef IMPLIB_EXPORT_SHIMS
  .hidden FMOD5_DSP_SetActive
#endif
FMOD5_DSP_SetActive:
  .cfi_startproc
  .cfi_def_cfa_offset 4  // Return address
  // add $0, %rsp  Why GDB fails to step over call without this?!
  // x86 has no support for PC-relative addressing so code is not very efficient.
  // We also trash EAX here (it's call-clobbered in cdecl).
  call __implib.x86.get_pc_thunk.ax
  addl $_GLOBAL_OFFSET_TABLE_, %eax
  movl 732+_libfmod_so_tramp_table@GOTOFF(%eax), %eax
  cmp $0, %eax
  je 2f
1:
  jmp *%eax
2:
  mov $183, %eax
  call _libfmod_so_save_regs_and_resolve
  jmp FMOD5_DSP_SetActive
  .cfi_endproc
/*
 * Copyright 2019-2021 Yury Gribov
 *
 * The MIT License (MIT)
 *
 * Use of this source code is governed by MIT license that can be
 * found in the LICENSE.txt file.
 */

  .globl FMOD5_DSP_SetBypass
  .p2align 4
  .type FMOD5_DSP_SetBypass, %function
#ifndef IMPLIB_EXPORT_SHIMS
  .hidden FMOD5_DSP_SetBypass
#endif
FMOD5_DSP_SetBypass:
  .cfi_startproc
  .cfi_def_cfa_offset 4  // Return address
  // add $0, %rsp  Why GDB fails to step over call without this?!
  // x86 has no support for PC-relative addressing so code is not very efficient.
  // We also trash EAX here (it's call-clobbered in cdecl).
  call __implib.x86.get_pc_thunk.ax
  addl $_GLOBAL_OFFSET_TABLE_, %eax
  movl 736+_libfmod_so_tramp_table@GOTOFF(%eax), %eax
  cmp $0, %eax
  je 2f
1:
  jmp *%eax
2:
  mov $184, %eax
  call _libfmod_so_save_regs_and_resolve
  jmp FMOD5_DSP_SetBypass
  .cfi_endproc
/*
 * Copyright 2019-2021 Yury Gribov
 *
 * The MIT License (MIT)
 *
 * Use of this source code is governed by MIT license that can be
 * found in the LICENSE.txt file.
 */

  .globl FMOD5_DSP_SetChannelFormat
  .p2align 4
  .type FMOD5_DSP_SetChannelFormat, %function
#ifndef IMPLIB_EXPORT_SHIMS
  .hidden FMOD5_DSP_SetChannelFormat
#endif
FMOD5_DSP_SetChannelFormat:
  .cfi_startproc
  .cfi_def_cfa_offset 4  // Return address
  // add $0, %rsp  Why GDB fails to step over call without this?!
  // x86 has no support for PC-relative addressing so code is not very efficient.
  // We also trash EAX here (it's call-clobbered in cdecl).
  call __implib.x86.get_pc_thunk.ax
  addl $_GLOBAL_OFFSET_TABLE_, %eax
  movl 740+_libfmod_so_tramp_table@GOTOFF(%eax), %eax
  cmp $0, %eax
  je 2f
1:
  jmp *%eax
2:
  mov $185, %eax
  call _libfmod_so_save_regs_and_resolve
  jmp FMOD5_DSP_SetChannelFormat
  .cfi_endproc
/*
 * Copyright 2019-2021 Yury Gribov
 *
 * The MIT License (MIT)
 *
 * Use of this source code is governed by MIT license that can be
 * found in the LICENSE.txt file.
 */

  .globl FMOD5_DSP_SetMeteringEnabled
  .p2align 4
  .type FMOD5_DSP_SetMeteringEnabled, %function
#ifndef IMPLIB_EXPORT_SHIMS
  .hidden FMOD5_DSP_SetMeteringEnabled
#endif
FMOD5_DSP_SetMeteringEnabled:
  .cfi_startproc
  .cfi_def_cfa_offset 4  // Return address
  // add $0, %rsp  Why GDB fails to step over call without this?!
  // x86 has no support for PC-relative addressing so code is not very efficient.
  // We also trash EAX here (it's call-clobbered in cdecl).
  call __implib.x86.get_pc_thunk.ax
  addl $_GLOBAL_OFFSET_TABLE_, %eax
  movl 744+_libfmod_so_tramp_table@GOTOFF(%eax), %eax
  cmp $0, %eax
  je 2f
1:
  jmp *%eax
2:
  mov $186, %eax
  call _libfmod_so_save_regs_and_resolve
  jmp FMOD5_DSP_SetMeteringEnabled
  .cfi_endproc
/*
 * Copyright 2019-2021 Yury Gribov
 *
 * The MIT License (MIT)
 *
 * Use of this source code is governed by MIT license that can be
 * found in the LICENSE.txt file.
 */

  .globl FMOD5_DSP_SetParameterBool
  .p2align 4
  .type FMOD5_DSP_SetParameterBool, %function
#ifndef IMPLIB_EXPORT_SHIMS
  .hidden FMOD5_DSP_SetParameterBool
#endif
FMOD5_DSP_SetParameterBool:
  .cfi_startproc
  .cfi_def_cfa_offset 4  // Return address
  // add $0, %rsp  Why GDB fails to step over call without this?!
  // x86 has no support for PC-relative addressing so code is not very efficient.
  // We also trash EAX here (it's call-clobbered in cdecl).
  call __implib.x86.get_pc_thunk.ax
  addl $_GLOBAL_OFFSET_TABLE_, %eax
  movl 748+_libfmod_so_tramp_table@GOTOFF(%eax), %eax
  cmp $0, %eax
  je 2f
1:
  jmp *%eax
2:
  mov $187, %eax
  call _libfmod_so_save_regs_and_resolve
  jmp FMOD5_DSP_SetParameterBool
  .cfi_endproc
/*
 * Copyright 2019-2021 Yury Gribov
 *
 * The MIT License (MIT)
 *
 * Use of this source code is governed by MIT license that can be
 * found in the LICENSE.txt file.
 */

  .globl FMOD5_DSP_SetParameterData
  .p2align 4
  .type FMOD5_DSP_SetParameterData, %function
#ifndef IMPLIB_EXPORT_SHIMS
  .hidden FMOD5_DSP_SetParameterData
#endif
FMOD5_DSP_SetParameterData:
  .cfi_startproc
  .cfi_def_cfa_offset 4  // Return address
  // add $0, %rsp  Why GDB fails to step over call without this?!
  // x86 has no support for PC-relative addressing so code is not very efficient.
  // We also trash EAX here (it's call-clobbered in cdecl).
  call __implib.x86.get_pc_thunk.ax
  addl $_GLOBAL_OFFSET_TABLE_, %eax
  movl 752+_libfmod_so_tramp_table@GOTOFF(%eax), %eax
  cmp $0, %eax
  je 2f
1:
  jmp *%eax
2:
  mov $188, %eax
  call _libfmod_so_save_regs_and_resolve
  jmp FMOD5_DSP_SetParameterData
  .cfi_endproc
/*
 * Copyright 2019-2021 Yury Gribov
 *
 * The MIT License (MIT)
 *
 * Use of this source code is governed by MIT license that can be
 * found in the LICENSE.txt file.
 */

  .globl FMOD5_DSP_SetParameterFloat
  .p2align 4
  .type FMOD5_DSP_SetParameterFloat, %function
#ifndef IMPLIB_EXPORT_SHIMS
  .hidden FMOD5_DSP_SetParameterFloat
#endif
FMOD5_DSP_SetParameterFloat:
  .cfi_startproc
  .cfi_def_cfa_offset 4  // Return address
  // add $0, %rsp  Why GDB fails to step over call without this?!
  // x86 has no support for PC-relative addressing so code is not very efficient.
  // We also trash EAX here (it's call-clobbered in cdecl).
  call __implib.x86.get_pc_thunk.ax
  addl $_GLOBAL_OFFSET_TABLE_, %eax
  movl 756+_libfmod_so_tramp_table@GOTOFF(%eax), %eax
  cmp $0, %eax
  je 2f
1:
  jmp *%eax
2:
  mov $189, %eax
  call _libfmod_so_save_regs_and_resolve
  jmp FMOD5_DSP_SetParameterFloat
  .cfi_endproc
/*
 * Copyright 2019-2021 Yury Gribov
 *
 * The MIT License (MIT)
 *
 * Use of this source code is governed by MIT license that can be
 * found in the LICENSE.txt file.
 */

  .globl FMOD5_DSP_SetParameterInt
  .p2align 4
  .type FMOD5_DSP_SetParameterInt, %function
#ifndef IMPLIB_EXPORT_SHIMS
  .hidden FMOD5_DSP_SetParameterInt
#endif
FMOD5_DSP_SetParameterInt:
  .cfi_startproc
  .cfi_def_cfa_offset 4  // Return address
  // add $0, %rsp  Why GDB fails to step over call without this?!
  // x86 has no support for PC-relative addressing so code is not very efficient.
  // We also trash EAX here (it's call-clobbered in cdecl).
  call __implib.x86.get_pc_thunk.ax
  addl $_GLOBAL_OFFSET_TABLE_, %eax
  movl 760+_libfmod_so_tramp_table@GOTOFF(%eax), %eax
  cmp $0, %eax
  je 2f
1:
  jmp *%eax
2:
  mov $190, %eax
  call _libfmod_so_save_regs_and_resolve
  jmp FMOD5_DSP_SetParameterInt
  .cfi_endproc
/*
 * Copyright 2019-2021 Yury Gribov
 *
 * The MIT License (MIT)
 *
 * Use of this source code is governed by MIT license that can be
 * found in the LICENSE.txt file.
 */

  .globl FMOD5_DSP_SetUserData
  .p2align 4
  .type FMOD5_DSP_SetUserData, %function
#ifndef IMPLIB_EXPORT_SHIMS
  .hidden FMOD5_DSP_SetUserData
#endif
FMOD5_DSP_SetUserData:
  .cfi_startproc
  .cfi_def_cfa_offset 4  // Return address
  // add $0, %rsp  Why GDB fails to step over call without this?!
  // x86 has no support for PC-relative addressing so code is not very efficient.
  // We also trash EAX here (it's call-clobbered in cdecl).
  call __implib.x86.get_pc_thunk.ax
  addl $_GLOBAL_OFFSET_TABLE_, %eax
  movl 764+_libfmod_so_tramp_table@GOTOFF(%eax), %eax
  cmp $0, %eax
  je 2f
1:
  jmp *%eax
2:
  mov $191, %eax
  call _libfmod_so_save_regs_and_resolve
  jmp FMOD5_DSP_SetUserData
  .cfi_endproc
/*
 * Copyright 2019-2021 Yury Gribov
 *
 * The MIT License (MIT)
 *
 * Use of this source code is governed by MIT license that can be
 * found in the LICENSE.txt file.
 */

  .globl FMOD5_DSP_SetWetDryMix
  .p2align 4
  .type FMOD5_DSP_SetWetDryMix, %function
#ifndef IMPLIB_EXPORT_SHIMS
  .hidden FMOD5_DSP_SetWetDryMix
#endif
FMOD5_DSP_SetWetDryMix:
  .cfi_startproc
  .cfi_def_cfa_offset 4  // Return address
  // add $0, %rsp  Why GDB fails to step over call without this?!
  // x86 has no support for PC-relative addressing so code is not very efficient.
  // We also trash EAX here (it's call-clobbered in cdecl).
  call __implib.x86.get_pc_thunk.ax
  addl $_GLOBAL_OFFSET_TABLE_, %eax
  movl 768+_libfmod_so_tramp_table@GOTOFF(%eax), %eax
  cmp $0, %eax
  je 2f
1:
  jmp *%eax
2:
  mov $192, %eax
  call _libfmod_so_save_regs_and_resolve
  jmp FMOD5_DSP_SetWetDryMix
  .cfi_endproc
/*
 * Copyright 2019-2021 Yury Gribov
 *
 * The MIT License (MIT)
 *
 * Use of this source code is governed by MIT license that can be
 * found in the LICENSE.txt file.
 */

  .globl FMOD5_DSP_ShowConfigDialog
  .p2align 4
  .type FMOD5_DSP_ShowConfigDialog, %function
#ifndef IMPLIB_EXPORT_SHIMS
  .hidden FMOD5_DSP_ShowConfigDialog
#endif
FMOD5_DSP_ShowConfigDialog:
  .cfi_startproc
  .cfi_def_cfa_offset 4  // Return address
  // add $0, %rsp  Why GDB fails to step over call without this?!
  // x86 has no support for PC-relative addressing so code is not very efficient.
  // We also trash EAX here (it's call-clobbered in cdecl).
  call __implib.x86.get_pc_thunk.ax
  addl $_GLOBAL_OFFSET_TABLE_, %eax
  movl 772+_libfmod_so_tramp_table@GOTOFF(%eax), %eax
  cmp $0, %eax
  je 2f
1:
  jmp *%eax
2:
  mov $193, %eax
  call _libfmod_so_save_regs_and_resolve
  jmp FMOD5_DSP_ShowConfigDialog
  .cfi_endproc
/*
 * Copyright 2019-2021 Yury Gribov
 *
 * The MIT License (MIT)
 *
 * Use of this source code is governed by MIT license that can be
 * found in the LICENSE.txt file.
 */

  .globl FMOD5_Debug_Initialize
  .p2align 4
  .type FMOD5_Debug_Initialize, %function
#ifndef IMPLIB_EXPORT_SHIMS
  .hidden FMOD5_Debug_Initialize
#endif
FMOD5_Debug_Initialize:
  .cfi_startproc
  .cfi_def_cfa_offset 4  // Return address
  // add $0, %rsp  Why GDB fails to step over call without this?!
  // x86 has no support for PC-relative addressing so code is not very efficient.
  // We also trash EAX here (it's call-clobbered in cdecl).
  call __implib.x86.get_pc_thunk.ax
  addl $_GLOBAL_OFFSET_TABLE_, %eax
  movl 776+_libfmod_so_tramp_table@GOTOFF(%eax), %eax
  cmp $0, %eax
  je 2f
1:
  jmp *%eax
2:
  mov $194, %eax
  call _libfmod_so_save_regs_and_resolve
  jmp FMOD5_Debug_Initialize
  .cfi_endproc
/*
 * Copyright 2019-2021 Yury Gribov
 *
 * The MIT License (MIT)
 *
 * Use of this source code is governed by MIT license that can be
 * found in the LICENSE.txt file.
 */

  .globl FMOD5_File_GetDiskBusy
  .p2align 4
  .type FMOD5_File_GetDiskBusy, %function
#ifndef IMPLIB_EXPORT_SHIMS
  .hidden FMOD5_File_GetDiskBusy
#endif
FMOD5_File_GetDiskBusy:
  .cfi_startproc
  .cfi_def_cfa_offset 4  // Return address
  // add $0, %rsp  Why GDB fails to step over call without this?!
  // x86 has no support for PC-relative addressing so code is not very efficient.
  // We also trash EAX here (it's call-clobbered in cdecl).
  call __implib.x86.get_pc_thunk.ax
  addl $_GLOBAL_OFFSET_TABLE_, %eax
  movl 780+_libfmod_so_tramp_table@GOTOFF(%eax), %eax
  cmp $0, %eax
  je 2f
1:
  jmp *%eax
2:
  mov $195, %eax
  call _libfmod_so_save_regs_and_resolve
  jmp FMOD5_File_GetDiskBusy
  .cfi_endproc
/*
 * Copyright 2019-2021 Yury Gribov
 *
 * The MIT License (MIT)
 *
 * Use of this source code is governed by MIT license that can be
 * found in the LICENSE.txt file.
 */

  .globl FMOD5_File_SetDiskBusy
  .p2align 4
  .type FMOD5_File_SetDiskBusy, %function
#ifndef IMPLIB_EXPORT_SHIMS
  .hidden FMOD5_File_SetDiskBusy
#endif
FMOD5_File_SetDiskBusy:
  .cfi_startproc
  .cfi_def_cfa_offset 4  // Return address
  // add $0, %rsp  Why GDB fails to step over call without this?!
  // x86 has no support for PC-relative addressing so code is not very efficient.
  // We also trash EAX here (it's call-clobbered in cdecl).
  call __implib.x86.get_pc_thunk.ax
  addl $_GLOBAL_OFFSET_TABLE_, %eax
  movl 784+_libfmod_so_tramp_table@GOTOFF(%eax), %eax
  cmp $0, %eax
  je 2f
1:
  jmp *%eax
2:
  mov $196, %eax
  call _libfmod_so_save_regs_and_resolve
  jmp FMOD5_File_SetDiskBusy
  .cfi_endproc
/*
 * Copyright 2019-2021 Yury Gribov
 *
 * The MIT License (MIT)
 *
 * Use of this source code is governed by MIT license that can be
 * found in the LICENSE.txt file.
 */

  .globl FMOD5_Geometry_AddPolygon
  .p2align 4
  .type FMOD5_Geometry_AddPolygon, %function
#ifndef IMPLIB_EXPORT_SHIMS
  .hidden FMOD5_Geometry_AddPolygon
#endif
FMOD5_Geometry_AddPolygon:
  .cfi_startproc
  .cfi_def_cfa_offset 4  // Return address
  // add $0, %rsp  Why GDB fails to step over call without this?!
  // x86 has no support for PC-relative addressing so code is not very efficient.
  // We also trash EAX here (it's call-clobbered in cdecl).
  call __implib.x86.get_pc_thunk.ax
  addl $_GLOBAL_OFFSET_TABLE_, %eax
  movl 788+_libfmod_so_tramp_table@GOTOFF(%eax), %eax
  cmp $0, %eax
  je 2f
1:
  jmp *%eax
2:
  mov $197, %eax
  call _libfmod_so_save_regs_and_resolve
  jmp FMOD5_Geometry_AddPolygon
  .cfi_endproc
/*
 * Copyright 2019-2021 Yury Gribov
 *
 * The MIT License (MIT)
 *
 * Use of this source code is governed by MIT license that can be
 * found in the LICENSE.txt file.
 */

  .globl FMOD5_Geometry_GetActive
  .p2align 4
  .type FMOD5_Geometry_GetActive, %function
#ifndef IMPLIB_EXPORT_SHIMS
  .hidden FMOD5_Geometry_GetActive
#endif
FMOD5_Geometry_GetActive:
  .cfi_startproc
  .cfi_def_cfa_offset 4  // Return address
  // add $0, %rsp  Why GDB fails to step over call without this?!
  // x86 has no support for PC-relative addressing so code is not very efficient.
  // We also trash EAX here (it's call-clobbered in cdecl).
  call __implib.x86.get_pc_thunk.ax
  addl $_GLOBAL_OFFSET_TABLE_, %eax
  movl 792+_libfmod_so_tramp_table@GOTOFF(%eax), %eax
  cmp $0, %eax
  je 2f
1:
  jmp *%eax
2:
  mov $198, %eax
  call _libfmod_so_save_regs_and_resolve
  jmp FMOD5_Geometry_GetActive
  .cfi_endproc
/*
 * Copyright 2019-2021 Yury Gribov
 *
 * The MIT License (MIT)
 *
 * Use of this source code is governed by MIT license that can be
 * found in the LICENSE.txt file.
 */

  .globl FMOD5_Geometry_GetMaxPolygons
  .p2align 4
  .type FMOD5_Geometry_GetMaxPolygons, %function
#ifndef IMPLIB_EXPORT_SHIMS
  .hidden FMOD5_Geometry_GetMaxPolygons
#endif
FMOD5_Geometry_GetMaxPolygons:
  .cfi_startproc
  .cfi_def_cfa_offset 4  // Return address
  // add $0, %rsp  Why GDB fails to step over call without this?!
  // x86 has no support for PC-relative addressing so code is not very efficient.
  // We also trash EAX here (it's call-clobbered in cdecl).
  call __implib.x86.get_pc_thunk.ax
  addl $_GLOBAL_OFFSET_TABLE_, %eax
  movl 796+_libfmod_so_tramp_table@GOTOFF(%eax), %eax
  cmp $0, %eax
  je 2f
1:
  jmp *%eax
2:
  mov $199, %eax
  call _libfmod_so_save_regs_and_resolve
  jmp FMOD5_Geometry_GetMaxPolygons
  .cfi_endproc
/*
 * Copyright 2019-2021 Yury Gribov
 *
 * The MIT License (MIT)
 *
 * Use of this source code is governed by MIT license that can be
 * found in the LICENSE.txt file.
 */

  .globl FMOD5_Geometry_GetNumPolygons
  .p2align 4
  .type FMOD5_Geometry_GetNumPolygons, %function
#ifndef IMPLIB_EXPORT_SHIMS
  .hidden FMOD5_Geometry_GetNumPolygons
#endif
FMOD5_Geometry_GetNumPolygons:
  .cfi_startproc
  .cfi_def_cfa_offset 4  // Return address
  // add $0, %rsp  Why GDB fails to step over call without this?!
  // x86 has no support for PC-relative addressing so code is not very efficient.
  // We also trash EAX here (it's call-clobbered in cdecl).
  call __implib.x86.get_pc_thunk.ax
  addl $_GLOBAL_OFFSET_TABLE_, %eax
  movl 800+_libfmod_so_tramp_table@GOTOFF(%eax), %eax
  cmp $0, %eax
  je 2f
1:
  jmp *%eax
2:
  mov $200, %eax
  call _libfmod_so_save_regs_and_resolve
  jmp FMOD5_Geometry_GetNumPolygons
  .cfi_endproc
/*
 * Copyright 2019-2021 Yury Gribov
 *
 * The MIT License (MIT)
 *
 * Use of this source code is governed by MIT license that can be
 * found in the LICENSE.txt file.
 */

  .globl FMOD5_Geometry_GetPolygonAttributes
  .p2align 4
  .type FMOD5_Geometry_GetPolygonAttributes, %function
#ifndef IMPLIB_EXPORT_SHIMS
  .hidden FMOD5_Geometry_GetPolygonAttributes
#endif
FMOD5_Geometry_GetPolygonAttributes:
  .cfi_startproc
  .cfi_def_cfa_offset 4  // Return address
  // add $0, %rsp  Why GDB fails to step over call without this?!
  // x86 has no support for PC-relative addressing so code is not very efficient.
  // We also trash EAX here (it's call-clobbered in cdecl).
  call __implib.x86.get_pc_thunk.ax
  addl $_GLOBAL_OFFSET_TABLE_, %eax
  movl 804+_libfmod_so_tramp_table@GOTOFF(%eax), %eax
  cmp $0, %eax
  je 2f
1:
  jmp *%eax
2:
  mov $201, %eax
  call _libfmod_so_save_regs_and_resolve
  jmp FMOD5_Geometry_GetPolygonAttributes
  .cfi_endproc
/*
 * Copyright 2019-2021 Yury Gribov
 *
 * The MIT License (MIT)
 *
 * Use of this source code is governed by MIT license that can be
 * found in the LICENSE.txt file.
 */

  .globl FMOD5_Geometry_GetPolygonNumVertices
  .p2align 4
  .type FMOD5_Geometry_GetPolygonNumVertices, %function
#ifndef IMPLIB_EXPORT_SHIMS
  .hidden FMOD5_Geometry_GetPolygonNumVertices
#endif
FMOD5_Geometry_GetPolygonNumVertices:
  .cfi_startproc
  .cfi_def_cfa_offset 4  // Return address
  // add $0, %rsp  Why GDB fails to step over call without this?!
  // x86 has no support for PC-relative addressing so code is not very efficient.
  // We also trash EAX here (it's call-clobbered in cdecl).
  call __implib.x86.get_pc_thunk.ax
  addl $_GLOBAL_OFFSET_TABLE_, %eax
  movl 808+_libfmod_so_tramp_table@GOTOFF(%eax), %eax
  cmp $0, %eax
  je 2f
1:
  jmp *%eax
2:
  mov $202, %eax
  call _libfmod_so_save_regs_and_resolve
  jmp FMOD5_Geometry_GetPolygonNumVertices
  .cfi_endproc
/*
 * Copyright 2019-2021 Yury Gribov
 *
 * The MIT License (MIT)
 *
 * Use of this source code is governed by MIT license that can be
 * found in the LICENSE.txt file.
 */

  .globl FMOD5_Geometry_GetPolygonVertex
  .p2align 4
  .type FMOD5_Geometry_GetPolygonVertex, %function
#ifndef IMPLIB_EXPORT_SHIMS
  .hidden FMOD5_Geometry_GetPolygonVertex
#endif
FMOD5_Geometry_GetPolygonVertex:
  .cfi_startproc
  .cfi_def_cfa_offset 4  // Return address
  // add $0, %rsp  Why GDB fails to step over call without this?!
  // x86 has no support for PC-relative addressing so code is not very efficient.
  // We also trash EAX here (it's call-clobbered in cdecl).
  call __implib.x86.get_pc_thunk.ax
  addl $_GLOBAL_OFFSET_TABLE_, %eax
  movl 812+_libfmod_so_tramp_table@GOTOFF(%eax), %eax
  cmp $0, %eax
  je 2f
1:
  jmp *%eax
2:
  mov $203, %eax
  call _libfmod_so_save_regs_and_resolve
  jmp FMOD5_Geometry_GetPolygonVertex
  .cfi_endproc
/*
 * Copyright 2019-2021 Yury Gribov
 *
 * The MIT License (MIT)
 *
 * Use of this source code is governed by MIT license that can be
 * found in the LICENSE.txt file.
 */

  .globl FMOD5_Geometry_GetPosition
  .p2align 4
  .type FMOD5_Geometry_GetPosition, %function
#ifndef IMPLIB_EXPORT_SHIMS
  .hidden FMOD5_Geometry_GetPosition
#endif
FMOD5_Geometry_GetPosition:
  .cfi_startproc
  .cfi_def_cfa_offset 4  // Return address
  // add $0, %rsp  Why GDB fails to step over call without this?!
  // x86 has no support for PC-relative addressing so code is not very efficient.
  // We also trash EAX here (it's call-clobbered in cdecl).
  call __implib.x86.get_pc_thunk.ax
  addl $_GLOBAL_OFFSET_TABLE_, %eax
  movl 816+_libfmod_so_tramp_table@GOTOFF(%eax), %eax
  cmp $0, %eax
  je 2f
1:
  jmp *%eax
2:
  mov $204, %eax
  call _libfmod_so_save_regs_and_resolve
  jmp FMOD5_Geometry_GetPosition
  .cfi_endproc
/*
 * Copyright 2019-2021 Yury Gribov
 *
 * The MIT License (MIT)
 *
 * Use of this source code is governed by MIT license that can be
 * found in the LICENSE.txt file.
 */

  .globl FMOD5_Geometry_GetRotation
  .p2align 4
  .type FMOD5_Geometry_GetRotation, %function
#ifndef IMPLIB_EXPORT_SHIMS
  .hidden FMOD5_Geometry_GetRotation
#endif
FMOD5_Geometry_GetRotation:
  .cfi_startproc
  .cfi_def_cfa_offset 4  // Return address
  // add $0, %rsp  Why GDB fails to step over call without this?!
  // x86 has no support for PC-relative addressing so code is not very efficient.
  // We also trash EAX here (it's call-clobbered in cdecl).
  call __implib.x86.get_pc_thunk.ax
  addl $_GLOBAL_OFFSET_TABLE_, %eax
  movl 820+_libfmod_so_tramp_table@GOTOFF(%eax), %eax
  cmp $0, %eax
  je 2f
1:
  jmp *%eax
2:
  mov $205, %eax
  call _libfmod_so_save_regs_and_resolve
  jmp FMOD5_Geometry_GetRotation
  .cfi_endproc
/*
 * Copyright 2019-2021 Yury Gribov
 *
 * The MIT License (MIT)
 *
 * Use of this source code is governed by MIT license that can be
 * found in the LICENSE.txt file.
 */

  .globl FMOD5_Geometry_GetScale
  .p2align 4
  .type FMOD5_Geometry_GetScale, %function
#ifndef IMPLIB_EXPORT_SHIMS
  .hidden FMOD5_Geometry_GetScale
#endif
FMOD5_Geometry_GetScale:
  .cfi_startproc
  .cfi_def_cfa_offset 4  // Return address
  // add $0, %rsp  Why GDB fails to step over call without this?!
  // x86 has no support for PC-relative addressing so code is not very efficient.
  // We also trash EAX here (it's call-clobbered in cdecl).
  call __implib.x86.get_pc_thunk.ax
  addl $_GLOBAL_OFFSET_TABLE_, %eax
  movl 824+_libfmod_so_tramp_table@GOTOFF(%eax), %eax
  cmp $0, %eax
  je 2f
1:
  jmp *%eax
2:
  mov $206, %eax
  call _libfmod_so_save_regs_and_resolve
  jmp FMOD5_Geometry_GetScale
  .cfi_endproc
/*
 * Copyright 2019-2021 Yury Gribov
 *
 * The MIT License (MIT)
 *
 * Use of this source code is governed by MIT license that can be
 * found in the LICENSE.txt file.
 */

  .globl FMOD5_Geometry_GetUserData
  .p2align 4
  .type FMOD5_Geometry_GetUserData, %function
#ifndef IMPLIB_EXPORT_SHIMS
  .hidden FMOD5_Geometry_GetUserData
#endif
FMOD5_Geometry_GetUserData:
  .cfi_startproc
  .cfi_def_cfa_offset 4  // Return address
  // add $0, %rsp  Why GDB fails to step over call without this?!
  // x86 has no support for PC-relative addressing so code is not very efficient.
  // We also trash EAX here (it's call-clobbered in cdecl).
  call __implib.x86.get_pc_thunk.ax
  addl $_GLOBAL_OFFSET_TABLE_, %eax
  movl 828+_libfmod_so_tramp_table@GOTOFF(%eax), %eax
  cmp $0, %eax
  je 2f
1:
  jmp *%eax
2:
  mov $207, %eax
  call _libfmod_so_save_regs_and_resolve
  jmp FMOD5_Geometry_GetUserData
  .cfi_endproc
/*
 * Copyright 2019-2021 Yury Gribov
 *
 * The MIT License (MIT)
 *
 * Use of this source code is governed by MIT license that can be
 * found in the LICENSE.txt file.
 */

  .globl FMOD5_Geometry_Release
  .p2align 4
  .type FMOD5_Geometry_Release, %function
#ifndef IMPLIB_EXPORT_SHIMS
  .hidden FMOD5_Geometry_Release
#endif
FMOD5_Geometry_Release:
  .cfi_startproc
  .cfi_def_cfa_offset 4  // Return address
  // add $0, %rsp  Why GDB fails to step over call without this?!
  // x86 has no support for PC-relative addressing so code is not very efficient.
  // We also trash EAX here (it's call-clobbered in cdecl).
  call __implib.x86.get_pc_thunk.ax
  addl $_GLOBAL_OFFSET_TABLE_, %eax
  movl 832+_libfmod_so_tramp_table@GOTOFF(%eax), %eax
  cmp $0, %eax
  je 2f
1:
  jmp *%eax
2:
  mov $208, %eax
  call _libfmod_so_save_regs_and_resolve
  jmp FMOD5_Geometry_Release
  .cfi_endproc
/*
 * Copyright 2019-2021 Yury Gribov
 *
 * The MIT License (MIT)
 *
 * Use of this source code is governed by MIT license that can be
 * found in the LICENSE.txt file.
 */

  .globl FMOD5_Geometry_Save
  .p2align 4
  .type FMOD5_Geometry_Save, %function
#ifndef IMPLIB_EXPORT_SHIMS
  .hidden FMOD5_Geometry_Save
#endif
FMOD5_Geometry_Save:
  .cfi_startproc
  .cfi_def_cfa_offset 4  // Return address
  // add $0, %rsp  Why GDB fails to step over call without this?!
  // x86 has no support for PC-relative addressing so code is not very efficient.
  // We also trash EAX here (it's call-clobbered in cdecl).
  call __implib.x86.get_pc_thunk.ax
  addl $_GLOBAL_OFFSET_TABLE_, %eax
  movl 836+_libfmod_so_tramp_table@GOTOFF(%eax), %eax
  cmp $0, %eax
  je 2f
1:
  jmp *%eax
2:
  mov $209, %eax
  call _libfmod_so_save_regs_and_resolve
  jmp FMOD5_Geometry_Save
  .cfi_endproc
/*
 * Copyright 2019-2021 Yury Gribov
 *
 * The MIT License (MIT)
 *
 * Use of this source code is governed by MIT license that can be
 * found in the LICENSE.txt file.
 */

  .globl FMOD5_Geometry_SetActive
  .p2align 4
  .type FMOD5_Geometry_SetActive, %function
#ifndef IMPLIB_EXPORT_SHIMS
  .hidden FMOD5_Geometry_SetActive
#endif
FMOD5_Geometry_SetActive:
  .cfi_startproc
  .cfi_def_cfa_offset 4  // Return address
  // add $0, %rsp  Why GDB fails to step over call without this?!
  // x86 has no support for PC-relative addressing so code is not very efficient.
  // We also trash EAX here (it's call-clobbered in cdecl).
  call __implib.x86.get_pc_thunk.ax
  addl $_GLOBAL_OFFSET_TABLE_, %eax
  movl 840+_libfmod_so_tramp_table@GOTOFF(%eax), %eax
  cmp $0, %eax
  je 2f
1:
  jmp *%eax
2:
  mov $210, %eax
  call _libfmod_so_save_regs_and_resolve
  jmp FMOD5_Geometry_SetActive
  .cfi_endproc
/*
 * Copyright 2019-2021 Yury Gribov
 *
 * The MIT License (MIT)
 *
 * Use of this source code is governed by MIT license that can be
 * found in the LICENSE.txt file.
 */

  .globl FMOD5_Geometry_SetPolygonAttributes
  .p2align 4
  .type FMOD5_Geometry_SetPolygonAttributes, %function
#ifndef IMPLIB_EXPORT_SHIMS
  .hidden FMOD5_Geometry_SetPolygonAttributes
#endif
FMOD5_Geometry_SetPolygonAttributes:
  .cfi_startproc
  .cfi_def_cfa_offset 4  // Return address
  // add $0, %rsp  Why GDB fails to step over call without this?!
  // x86 has no support for PC-relative addressing so code is not very efficient.
  // We also trash EAX here (it's call-clobbered in cdecl).
  call __implib.x86.get_pc_thunk.ax
  addl $_GLOBAL_OFFSET_TABLE_, %eax
  movl 844+_libfmod_so_tramp_table@GOTOFF(%eax), %eax
  cmp $0, %eax
  je 2f
1:
  jmp *%eax
2:
  mov $211, %eax
  call _libfmod_so_save_regs_and_resolve
  jmp FMOD5_Geometry_SetPolygonAttributes
  .cfi_endproc
/*
 * Copyright 2019-2021 Yury Gribov
 *
 * The MIT License (MIT)
 *
 * Use of this source code is governed by MIT license that can be
 * found in the LICENSE.txt file.
 */

  .globl FMOD5_Geometry_SetPolygonVertex
  .p2align 4
  .type FMOD5_Geometry_SetPolygonVertex, %function
#ifndef IMPLIB_EXPORT_SHIMS
  .hidden FMOD5_Geometry_SetPolygonVertex
#endif
FMOD5_Geometry_SetPolygonVertex:
  .cfi_startproc
  .cfi_def_cfa_offset 4  // Return address
  // add $0, %rsp  Why GDB fails to step over call without this?!
  // x86 has no support for PC-relative addressing so code is not very efficient.
  // We also trash EAX here (it's call-clobbered in cdecl).
  call __implib.x86.get_pc_thunk.ax
  addl $_GLOBAL_OFFSET_TABLE_, %eax
  movl 848+_libfmod_so_tramp_table@GOTOFF(%eax), %eax
  cmp $0, %eax
  je 2f
1:
  jmp *%eax
2:
  mov $212, %eax
  call _libfmod_so_save_regs_and_resolve
  jmp FMOD5_Geometry_SetPolygonVertex
  .cfi_endproc
/*
 * Copyright 2019-2021 Yury Gribov
 *
 * The MIT License (MIT)
 *
 * Use of this source code is governed by MIT license that can be
 * found in the LICENSE.txt file.
 */

  .globl FMOD5_Geometry_SetPosition
  .p2align 4
  .type FMOD5_Geometry_SetPosition, %function
#ifndef IMPLIB_EXPORT_SHIMS
  .hidden FMOD5_Geometry_SetPosition
#endif
FMOD5_Geometry_SetPosition:
  .cfi_startproc
  .cfi_def_cfa_offset 4  // Return address
  // add $0, %rsp  Why GDB fails to step over call without this?!
  // x86 has no support for PC-relative addressing so code is not very efficient.
  // We also trash EAX here (it's call-clobbered in cdecl).
  call __implib.x86.get_pc_thunk.ax
  addl $_GLOBAL_OFFSET_TABLE_, %eax
  movl 852+_libfmod_so_tramp_table@GOTOFF(%eax), %eax
  cmp $0, %eax
  je 2f
1:
  jmp *%eax
2:
  mov $213, %eax
  call _libfmod_so_save_regs_and_resolve
  jmp FMOD5_Geometry_SetPosition
  .cfi_endproc
/*
 * Copyright 2019-2021 Yury Gribov
 *
 * The MIT License (MIT)
 *
 * Use of this source code is governed by MIT license that can be
 * found in the LICENSE.txt file.
 */

  .globl FMOD5_Geometry_SetRotation
  .p2align 4
  .type FMOD5_Geometry_SetRotation, %function
#ifndef IMPLIB_EXPORT_SHIMS
  .hidden FMOD5_Geometry_SetRotation
#endif
FMOD5_Geometry_SetRotation:
  .cfi_startproc
  .cfi_def_cfa_offset 4  // Return address
  // add $0, %rsp  Why GDB fails to step over call without this?!
  // x86 has no support for PC-relative addressing so code is not very efficient.
  // We also trash EAX here (it's call-clobbered in cdecl).
  call __implib.x86.get_pc_thunk.ax
  addl $_GLOBAL_OFFSET_TABLE_, %eax
  movl 856+_libfmod_so_tramp_table@GOTOFF(%eax), %eax
  cmp $0, %eax
  je 2f
1:
  jmp *%eax
2:
  mov $214, %eax
  call _libfmod_so_save_regs_and_resolve
  jmp FMOD5_Geometry_SetRotation
  .cfi_endproc
/*
 * Copyright 2019-2021 Yury Gribov
 *
 * The MIT License (MIT)
 *
 * Use of this source code is governed by MIT license that can be
 * found in the LICENSE.txt file.
 */

  .globl FMOD5_Geometry_SetScale
  .p2align 4
  .type FMOD5_Geometry_SetScale, %function
#ifndef IMPLIB_EXPORT_SHIMS
  .hidden FMOD5_Geometry_SetScale
#endif
FMOD5_Geometry_SetScale:
  .cfi_startproc
  .cfi_def_cfa_offset 4  // Return address
  // add $0, %rsp  Why GDB fails to step over call without this?!
  // x86 has no support for PC-relative addressing so code is not very efficient.
  // We also trash EAX here (it's call-clobbered in cdecl).
  call __implib.x86.get_pc_thunk.ax
  addl $_GLOBAL_OFFSET_TABLE_, %eax
  movl 860+_libfmod_so_tramp_table@GOTOFF(%eax), %eax
  cmp $0, %eax
  je 2f
1:
  jmp *%eax
2:
  mov $215, %eax
  call _libfmod_so_save_regs_and_resolve
  jmp FMOD5_Geometry_SetScale
  .cfi_endproc
/*
 * Copyright 2019-2021 Yury Gribov
 *
 * The MIT License (MIT)
 *
 * Use of this source code is governed by MIT license that can be
 * found in the LICENSE.txt file.
 */

  .globl FMOD5_Geometry_SetUserData
  .p2align 4
  .type FMOD5_Geometry_SetUserData, %function
#ifndef IMPLIB_EXPORT_SHIMS
  .hidden FMOD5_Geometry_SetUserData
#endif
FMOD5_Geometry_SetUserData:
  .cfi_startproc
  .cfi_def_cfa_offset 4  // Return address
  // add $0, %rsp  Why GDB fails to step over call without this?!
  // x86 has no support for PC-relative addressing so code is not very efficient.
  // We also trash EAX here (it's call-clobbered in cdecl).
  call __implib.x86.get_pc_thunk.ax
  addl $_GLOBAL_OFFSET_TABLE_, %eax
  movl 864+_libfmod_so_tramp_table@GOTOFF(%eax), %eax
  cmp $0, %eax
  je 2f
1:
  jmp *%eax
2:
  mov $216, %eax
  call _libfmod_so_save_regs_and_resolve
  jmp FMOD5_Geometry_SetUserData
  .cfi_endproc
/*
 * Copyright 2019-2021 Yury Gribov
 *
 * The MIT License (MIT)
 *
 * Use of this source code is governed by MIT license that can be
 * found in the LICENSE.txt file.
 */

  .globl FMOD5_Memory_GetStats
  .p2align 4
  .type FMOD5_Memory_GetStats, %function
#ifndef IMPLIB_EXPORT_SHIMS
  .hidden FMOD5_Memory_GetStats
#endif
FMOD5_Memory_GetStats:
  .cfi_startproc
  .cfi_def_cfa_offset 4  // Return address
  // add $0, %rsp  Why GDB fails to step over call without this?!
  // x86 has no support for PC-relative addressing so code is not very efficient.
  // We also trash EAX here (it's call-clobbered in cdecl).
  call __implib.x86.get_pc_thunk.ax
  addl $_GLOBAL_OFFSET_TABLE_, %eax
  movl 868+_libfmod_so_tramp_table@GOTOFF(%eax), %eax
  cmp $0, %eax
  je 2f
1:
  jmp *%eax
2:
  mov $217, %eax
  call _libfmod_so_save_regs_and_resolve
  jmp FMOD5_Memory_GetStats
  .cfi_endproc
/*
 * Copyright 2019-2021 Yury Gribov
 *
 * The MIT License (MIT)
 *
 * Use of this source code is governed by MIT license that can be
 * found in the LICENSE.txt file.
 */

  .globl FMOD5_Memory_Initialize
  .p2align 4
  .type FMOD5_Memory_Initialize, %function
#ifndef IMPLIB_EXPORT_SHIMS
  .hidden FMOD5_Memory_Initialize
#endif
FMOD5_Memory_Initialize:
  .cfi_startproc
  .cfi_def_cfa_offset 4  // Return address
  // add $0, %rsp  Why GDB fails to step over call without this?!
  // x86 has no support for PC-relative addressing so code is not very efficient.
  // We also trash EAX here (it's call-clobbered in cdecl).
  call __implib.x86.get_pc_thunk.ax
  addl $_GLOBAL_OFFSET_TABLE_, %eax
  movl 872+_libfmod_so_tramp_table@GOTOFF(%eax), %eax
  cmp $0, %eax
  je 2f
1:
  jmp *%eax
2:
  mov $218, %eax
  call _libfmod_so_save_regs_and_resolve
  jmp FMOD5_Memory_Initialize
  .cfi_endproc
/*
 * Copyright 2019-2021 Yury Gribov
 *
 * The MIT License (MIT)
 *
 * Use of this source code is governed by MIT license that can be
 * found in the LICENSE.txt file.
 */

  .globl FMOD5_Reverb3D_Get3DAttributes
  .p2align 4
  .type FMOD5_Reverb3D_Get3DAttributes, %function
#ifndef IMPLIB_EXPORT_SHIMS
  .hidden FMOD5_Reverb3D_Get3DAttributes
#endif
FMOD5_Reverb3D_Get3DAttributes:
  .cfi_startproc
  .cfi_def_cfa_offset 4  // Return address
  // add $0, %rsp  Why GDB fails to step over call without this?!
  // x86 has no support for PC-relative addressing so code is not very efficient.
  // We also trash EAX here (it's call-clobbered in cdecl).
  call __implib.x86.get_pc_thunk.ax
  addl $_GLOBAL_OFFSET_TABLE_, %eax
  movl 876+_libfmod_so_tramp_table@GOTOFF(%eax), %eax
  cmp $0, %eax
  je 2f
1:
  jmp *%eax
2:
  mov $219, %eax
  call _libfmod_so_save_regs_and_resolve
  jmp FMOD5_Reverb3D_Get3DAttributes
  .cfi_endproc
/*
 * Copyright 2019-2021 Yury Gribov
 *
 * The MIT License (MIT)
 *
 * Use of this source code is governed by MIT license that can be
 * found in the LICENSE.txt file.
 */

  .globl FMOD5_Reverb3D_GetActive
  .p2align 4
  .type FMOD5_Reverb3D_GetActive, %function
#ifndef IMPLIB_EXPORT_SHIMS
  .hidden FMOD5_Reverb3D_GetActive
#endif
FMOD5_Reverb3D_GetActive:
  .cfi_startproc
  .cfi_def_cfa_offset 4  // Return address
  // add $0, %rsp  Why GDB fails to step over call without this?!
  // x86 has no support for PC-relative addressing so code is not very efficient.
  // We also trash EAX here (it's call-clobbered in cdecl).
  call __implib.x86.get_pc_thunk.ax
  addl $_GLOBAL_OFFSET_TABLE_, %eax
  movl 880+_libfmod_so_tramp_table@GOTOFF(%eax), %eax
  cmp $0, %eax
  je 2f
1:
  jmp *%eax
2:
  mov $220, %eax
  call _libfmod_so_save_regs_and_resolve
  jmp FMOD5_Reverb3D_GetActive
  .cfi_endproc
/*
 * Copyright 2019-2021 Yury Gribov
 *
 * The MIT License (MIT)
 *
 * Use of this source code is governed by MIT license that can be
 * found in the LICENSE.txt file.
 */

  .globl FMOD5_Reverb3D_GetProperties
  .p2align 4
  .type FMOD5_Reverb3D_GetProperties, %function
#ifndef IMPLIB_EXPORT_SHIMS
  .hidden FMOD5_Reverb3D_GetProperties
#endif
FMOD5_Reverb3D_GetProperties:
  .cfi_startproc
  .cfi_def_cfa_offset 4  // Return address
  // add $0, %rsp  Why GDB fails to step over call without this?!
  // x86 has no support for PC-relative addressing so code is not very efficient.
  // We also trash EAX here (it's call-clobbered in cdecl).
  call __implib.x86.get_pc_thunk.ax
  addl $_GLOBAL_OFFSET_TABLE_, %eax
  movl 884+_libfmod_so_tramp_table@GOTOFF(%eax), %eax
  cmp $0, %eax
  je 2f
1:
  jmp *%eax
2:
  mov $221, %eax
  call _libfmod_so_save_regs_and_resolve
  jmp FMOD5_Reverb3D_GetProperties
  .cfi_endproc
/*
 * Copyright 2019-2021 Yury Gribov
 *
 * The MIT License (MIT)
 *
 * Use of this source code is governed by MIT license that can be
 * found in the LICENSE.txt file.
 */

  .globl FMOD5_Reverb3D_GetUserData
  .p2align 4
  .type FMOD5_Reverb3D_GetUserData, %function
#ifndef IMPLIB_EXPORT_SHIMS
  .hidden FMOD5_Reverb3D_GetUserData
#endif
FMOD5_Reverb3D_GetUserData:
  .cfi_startproc
  .cfi_def_cfa_offset 4  // Return address
  // add $0, %rsp  Why GDB fails to step over call without this?!
  // x86 has no support for PC-relative addressing so code is not very efficient.
  // We also trash EAX here (it's call-clobbered in cdecl).
  call __implib.x86.get_pc_thunk.ax
  addl $_GLOBAL_OFFSET_TABLE_, %eax
  movl 888+_libfmod_so_tramp_table@GOTOFF(%eax), %eax
  cmp $0, %eax
  je 2f
1:
  jmp *%eax
2:
  mov $222, %eax
  call _libfmod_so_save_regs_and_resolve
  jmp FMOD5_Reverb3D_GetUserData
  .cfi_endproc
/*
 * Copyright 2019-2021 Yury Gribov
 *
 * The MIT License (MIT)
 *
 * Use of this source code is governed by MIT license that can be
 * found in the LICENSE.txt file.
 */

  .globl FMOD5_Reverb3D_Release
  .p2align 4
  .type FMOD5_Reverb3D_Release, %function
#ifndef IMPLIB_EXPORT_SHIMS
  .hidden FMOD5_Reverb3D_Release
#endif
FMOD5_Reverb3D_Release:
  .cfi_startproc
  .cfi_def_cfa_offset 4  // Return address
  // add $0, %rsp  Why GDB fails to step over call without this?!
  // x86 has no support for PC-relative addressing so code is not very efficient.
  // We also trash EAX here (it's call-clobbered in cdecl).
  call __implib.x86.get_pc_thunk.ax
  addl $_GLOBAL_OFFSET_TABLE_, %eax
  movl 892+_libfmod_so_tramp_table@GOTOFF(%eax), %eax
  cmp $0, %eax
  je 2f
1:
  jmp *%eax
2:
  mov $223, %eax
  call _libfmod_so_save_regs_and_resolve
  jmp FMOD5_Reverb3D_Release
  .cfi_endproc
/*
 * Copyright 2019-2021 Yury Gribov
 *
 * The MIT License (MIT)
 *
 * Use of this source code is governed by MIT license that can be
 * found in the LICENSE.txt file.
 */

  .globl FMOD5_Reverb3D_Set3DAttributes
  .p2align 4
  .type FMOD5_Reverb3D_Set3DAttributes, %function
#ifndef IMPLIB_EXPORT_SHIMS
  .hidden FMOD5_Reverb3D_Set3DAttributes
#endif
FMOD5_Reverb3D_Set3DAttributes:
  .cfi_startproc
  .cfi_def_cfa_offset 4  // Return address
  // add $0, %rsp  Why GDB fails to step over call without this?!
  // x86 has no support for PC-relative addressing so code is not very efficient.
  // We also trash EAX here (it's call-clobbered in cdecl).
  call __implib.x86.get_pc_thunk.ax
  addl $_GLOBAL_OFFSET_TABLE_, %eax
  movl 896+_libfmod_so_tramp_table@GOTOFF(%eax), %eax
  cmp $0, %eax
  je 2f
1:
  jmp *%eax
2:
  mov $224, %eax
  call _libfmod_so_save_regs_and_resolve
  jmp FMOD5_Reverb3D_Set3DAttributes
  .cfi_endproc
/*
 * Copyright 2019-2021 Yury Gribov
 *
 * The MIT License (MIT)
 *
 * Use of this source code is governed by MIT license that can be
 * found in the LICENSE.txt file.
 */

  .globl FMOD5_Reverb3D_SetActive
  .p2align 4
  .type FMOD5_Reverb3D_SetActive, %function
#ifndef IMPLIB_EXPORT_SHIMS
  .hidden FMOD5_Reverb3D_SetActive
#endif
FMOD5_Reverb3D_SetActive:
  .cfi_startproc
  .cfi_def_cfa_offset 4  // Return address
  // add $0, %rsp  Why GDB fails to step over call without this?!
  // x86 has no support for PC-relative addressing so code is not very efficient.
  // We also trash EAX here (it's call-clobbered in cdecl).
  call __implib.x86.get_pc_thunk.ax
  addl $_GLOBAL_OFFSET_TABLE_, %eax
  movl 900+_libfmod_so_tramp_table@GOTOFF(%eax), %eax
  cmp $0, %eax
  je 2f
1:
  jmp *%eax
2:
  mov $225, %eax
  call _libfmod_so_save_regs_and_resolve
  jmp FMOD5_Reverb3D_SetActive
  .cfi_endproc
/*
 * Copyright 2019-2021 Yury Gribov
 *
 * The MIT License (MIT)
 *
 * Use of this source code is governed by MIT license that can be
 * found in the LICENSE.txt file.
 */

  .globl FMOD5_Reverb3D_SetProperties
  .p2align 4
  .type FMOD5_Reverb3D_SetProperties, %function
#ifndef IMPLIB_EXPORT_SHIMS
  .hidden FMOD5_Reverb3D_SetProperties
#endif
FMOD5_Reverb3D_SetProperties:
  .cfi_startproc
  .cfi_def_cfa_offset 4  // Return address
  // add $0, %rsp  Why GDB fails to step over call without this?!
  // x86 has no support for PC-relative addressing so code is not very efficient.
  // We also trash EAX here (it's call-clobbered in cdecl).
  call __implib.x86.get_pc_thunk.ax
  addl $_GLOBAL_OFFSET_TABLE_, %eax
  movl 904+_libfmod_so_tramp_table@GOTOFF(%eax), %eax
  cmp $0, %eax
  je 2f
1:
  jmp *%eax
2:
  mov $226, %eax
  call _libfmod_so_save_regs_and_resolve
  jmp FMOD5_Reverb3D_SetProperties
  .cfi_endproc
/*
 * Copyright 2019-2021 Yury Gribov
 *
 * The MIT License (MIT)
 *
 * Use of this source code is governed by MIT license that can be
 * found in the LICENSE.txt file.
 */

  .globl FMOD5_Reverb3D_SetUserData
  .p2align 4
  .type FMOD5_Reverb3D_SetUserData, %function
#ifndef IMPLIB_EXPORT_SHIMS
  .hidden FMOD5_Reverb3D_SetUserData
#endif
FMOD5_Reverb3D_SetUserData:
  .cfi_startproc
  .cfi_def_cfa_offset 4  // Return address
  // add $0, %rsp  Why GDB fails to step over call without this?!
  // x86 has no support for PC-relative addressing so code is not very efficient.
  // We also trash EAX here (it's call-clobbered in cdecl).
  call __implib.x86.get_pc_thunk.ax
  addl $_GLOBAL_OFFSET_TABLE_, %eax
  movl 908+_libfmod_so_tramp_table@GOTOFF(%eax), %eax
  cmp $0, %eax
  je 2f
1:
  jmp *%eax
2:
  mov $227, %eax
  call _libfmod_so_save_regs_and_resolve
  jmp FMOD5_Reverb3D_SetUserData
  .cfi_endproc
/*
 * Copyright 2019-2021 Yury Gribov
 *
 * The MIT License (MIT)
 *
 * Use of this source code is governed by MIT license that can be
 * found in the LICENSE.txt file.
 */

  .globl FMOD5_SoundGroup_GetMaxAudible
  .p2align 4
  .type FMOD5_SoundGroup_GetMaxAudible, %function
#ifndef IMPLIB_EXPORT_SHIMS
  .hidden FMOD5_SoundGroup_GetMaxAudible
#endif
FMOD5_SoundGroup_GetMaxAudible:
  .cfi_startproc
  .cfi_def_cfa_offset 4  // Return address
  // add $0, %rsp  Why GDB fails to step over call without this?!
  // x86 has no support for PC-relative addressing so code is not very efficient.
  // We also trash EAX here (it's call-clobbered in cdecl).
  call __implib.x86.get_pc_thunk.ax
  addl $_GLOBAL_OFFSET_TABLE_, %eax
  movl 912+_libfmod_so_tramp_table@GOTOFF(%eax), %eax
  cmp $0, %eax
  je 2f
1:
  jmp *%eax
2:
  mov $228, %eax
  call _libfmod_so_save_regs_and_resolve
  jmp FMOD5_SoundGroup_GetMaxAudible
  .cfi_endproc
/*
 * Copyright 2019-2021 Yury Gribov
 *
 * The MIT License (MIT)
 *
 * Use of this source code is governed by MIT license that can be
 * found in the LICENSE.txt file.
 */

  .globl FMOD5_SoundGroup_GetMaxAudibleBehavior
  .p2align 4
  .type FMOD5_SoundGroup_GetMaxAudibleBehavior, %function
#ifndef IMPLIB_EXPORT_SHIMS
  .hidden FMOD5_SoundGroup_GetMaxAudibleBehavior
#endif
FMOD5_SoundGroup_GetMaxAudibleBehavior:
  .cfi_startproc
  .cfi_def_cfa_offset 4  // Return address
  // add $0, %rsp  Why GDB fails to step over call without this?!
  // x86 has no support for PC-relative addressing so code is not very efficient.
  // We also trash EAX here (it's call-clobbered in cdecl).
  call __implib.x86.get_pc_thunk.ax
  addl $_GLOBAL_OFFSET_TABLE_, %eax
  movl 916+_libfmod_so_tramp_table@GOTOFF(%eax), %eax
  cmp $0, %eax
  je 2f
1:
  jmp *%eax
2:
  mov $229, %eax
  call _libfmod_so_save_regs_and_resolve
  jmp FMOD5_SoundGroup_GetMaxAudibleBehavior
  .cfi_endproc
/*
 * Copyright 2019-2021 Yury Gribov
 *
 * The MIT License (MIT)
 *
 * Use of this source code is governed by MIT license that can be
 * found in the LICENSE.txt file.
 */

  .globl FMOD5_SoundGroup_GetMuteFadeSpeed
  .p2align 4
  .type FMOD5_SoundGroup_GetMuteFadeSpeed, %function
#ifndef IMPLIB_EXPORT_SHIMS
  .hidden FMOD5_SoundGroup_GetMuteFadeSpeed
#endif
FMOD5_SoundGroup_GetMuteFadeSpeed:
  .cfi_startproc
  .cfi_def_cfa_offset 4  // Return address
  // add $0, %rsp  Why GDB fails to step over call without this?!
  // x86 has no support for PC-relative addressing so code is not very efficient.
  // We also trash EAX here (it's call-clobbered in cdecl).
  call __implib.x86.get_pc_thunk.ax
  addl $_GLOBAL_OFFSET_TABLE_, %eax
  movl 920+_libfmod_so_tramp_table@GOTOFF(%eax), %eax
  cmp $0, %eax
  je 2f
1:
  jmp *%eax
2:
  mov $230, %eax
  call _libfmod_so_save_regs_and_resolve
  jmp FMOD5_SoundGroup_GetMuteFadeSpeed
  .cfi_endproc
/*
 * Copyright 2019-2021 Yury Gribov
 *
 * The MIT License (MIT)
 *
 * Use of this source code is governed by MIT license that can be
 * found in the LICENSE.txt file.
 */

  .globl FMOD5_SoundGroup_GetName
  .p2align 4
  .type FMOD5_SoundGroup_GetName, %function
#ifndef IMPLIB_EXPORT_SHIMS
  .hidden FMOD5_SoundGroup_GetName
#endif
FMOD5_SoundGroup_GetName:
  .cfi_startproc
  .cfi_def_cfa_offset 4  // Return address
  // add $0, %rsp  Why GDB fails to step over call without this?!
  // x86 has no support for PC-relative addressing so code is not very efficient.
  // We also trash EAX here (it's call-clobbered in cdecl).
  call __implib.x86.get_pc_thunk.ax
  addl $_GLOBAL_OFFSET_TABLE_, %eax
  movl 924+_libfmod_so_tramp_table@GOTOFF(%eax), %eax
  cmp $0, %eax
  je 2f
1:
  jmp *%eax
2:
  mov $231, %eax
  call _libfmod_so_save_regs_and_resolve
  jmp FMOD5_SoundGroup_GetName
  .cfi_endproc
/*
 * Copyright 2019-2021 Yury Gribov
 *
 * The MIT License (MIT)
 *
 * Use of this source code is governed by MIT license that can be
 * found in the LICENSE.txt file.
 */

  .globl FMOD5_SoundGroup_GetNumPlaying
  .p2align 4
  .type FMOD5_SoundGroup_GetNumPlaying, %function
#ifndef IMPLIB_EXPORT_SHIMS
  .hidden FMOD5_SoundGroup_GetNumPlaying
#endif
FMOD5_SoundGroup_GetNumPlaying:
  .cfi_startproc
  .cfi_def_cfa_offset 4  // Return address
  // add $0, %rsp  Why GDB fails to step over call without this?!
  // x86 has no support for PC-relative addressing so code is not very efficient.
  // We also trash EAX here (it's call-clobbered in cdecl).
  call __implib.x86.get_pc_thunk.ax
  addl $_GLOBAL_OFFSET_TABLE_, %eax
  movl 928+_libfmod_so_tramp_table@GOTOFF(%eax), %eax
  cmp $0, %eax
  je 2f
1:
  jmp *%eax
2:
  mov $232, %eax
  call _libfmod_so_save_regs_and_resolve
  jmp FMOD5_SoundGroup_GetNumPlaying
  .cfi_endproc
/*
 * Copyright 2019-2021 Yury Gribov
 *
 * The MIT License (MIT)
 *
 * Use of this source code is governed by MIT license that can be
 * found in the LICENSE.txt file.
 */

  .globl FMOD5_SoundGroup_GetNumSounds
  .p2align 4
  .type FMOD5_SoundGroup_GetNumSounds, %function
#ifndef IMPLIB_EXPORT_SHIMS
  .hidden FMOD5_SoundGroup_GetNumSounds
#endif
FMOD5_SoundGroup_GetNumSounds:
  .cfi_startproc
  .cfi_def_cfa_offset 4  // Return address
  // add $0, %rsp  Why GDB fails to step over call without this?!
  // x86 has no support for PC-relative addressing so code is not very efficient.
  // We also trash EAX here (it's call-clobbered in cdecl).
  call __implib.x86.get_pc_thunk.ax
  addl $_GLOBAL_OFFSET_TABLE_, %eax
  movl 932+_libfmod_so_tramp_table@GOTOFF(%eax), %eax
  cmp $0, %eax
  je 2f
1:
  jmp *%eax
2:
  mov $233, %eax
  call _libfmod_so_save_regs_and_resolve
  jmp FMOD5_SoundGroup_GetNumSounds
  .cfi_endproc
/*
 * Copyright 2019-2021 Yury Gribov
 *
 * The MIT License (MIT)
 *
 * Use of this source code is governed by MIT license that can be
 * found in the LICENSE.txt file.
 */

  .globl FMOD5_SoundGroup_GetSound
  .p2align 4
  .type FMOD5_SoundGroup_GetSound, %function
#ifndef IMPLIB_EXPORT_SHIMS
  .hidden FMOD5_SoundGroup_GetSound
#endif
FMOD5_SoundGroup_GetSound:
  .cfi_startproc
  .cfi_def_cfa_offset 4  // Return address
  // add $0, %rsp  Why GDB fails to step over call without this?!
  // x86 has no support for PC-relative addressing so code is not very efficient.
  // We also trash EAX here (it's call-clobbered in cdecl).
  call __implib.x86.get_pc_thunk.ax
  addl $_GLOBAL_OFFSET_TABLE_, %eax
  movl 936+_libfmod_so_tramp_table@GOTOFF(%eax), %eax
  cmp $0, %eax
  je 2f
1:
  jmp *%eax
2:
  mov $234, %eax
  call _libfmod_so_save_regs_and_resolve
  jmp FMOD5_SoundGroup_GetSound
  .cfi_endproc
/*
 * Copyright 2019-2021 Yury Gribov
 *
 * The MIT License (MIT)
 *
 * Use of this source code is governed by MIT license that can be
 * found in the LICENSE.txt file.
 */

  .globl FMOD5_SoundGroup_GetSystemObject
  .p2align 4
  .type FMOD5_SoundGroup_GetSystemObject, %function
#ifndef IMPLIB_EXPORT_SHIMS
  .hidden FMOD5_SoundGroup_GetSystemObject
#endif
FMOD5_SoundGroup_GetSystemObject:
  .cfi_startproc
  .cfi_def_cfa_offset 4  // Return address
  // add $0, %rsp  Why GDB fails to step over call without this?!
  // x86 has no support for PC-relative addressing so code is not very efficient.
  // We also trash EAX here (it's call-clobbered in cdecl).
  call __implib.x86.get_pc_thunk.ax
  addl $_GLOBAL_OFFSET_TABLE_, %eax
  movl 940+_libfmod_so_tramp_table@GOTOFF(%eax), %eax
  cmp $0, %eax
  je 2f
1:
  jmp *%eax
2:
  mov $235, %eax
  call _libfmod_so_save_regs_and_resolve
  jmp FMOD5_SoundGroup_GetSystemObject
  .cfi_endproc
/*
 * Copyright 2019-2021 Yury Gribov
 *
 * The MIT License (MIT)
 *
 * Use of this source code is governed by MIT license that can be
 * found in the LICENSE.txt file.
 */

  .globl FMOD5_SoundGroup_GetUserData
  .p2align 4
  .type FMOD5_SoundGroup_GetUserData, %function
#ifndef IMPLIB_EXPORT_SHIMS
  .hidden FMOD5_SoundGroup_GetUserData
#endif
FMOD5_SoundGroup_GetUserData:
  .cfi_startproc
  .cfi_def_cfa_offset 4  // Return address
  // add $0, %rsp  Why GDB fails to step over call without this?!
  // x86 has no support for PC-relative addressing so code is not very efficient.
  // We also trash EAX here (it's call-clobbered in cdecl).
  call __implib.x86.get_pc_thunk.ax
  addl $_GLOBAL_OFFSET_TABLE_, %eax
  movl 944+_libfmod_so_tramp_table@GOTOFF(%eax), %eax
  cmp $0, %eax
  je 2f
1:
  jmp *%eax
2:
  mov $236, %eax
  call _libfmod_so_save_regs_and_resolve
  jmp FMOD5_SoundGroup_GetUserData
  .cfi_endproc
/*
 * Copyright 2019-2021 Yury Gribov
 *
 * The MIT License (MIT)
 *
 * Use of this source code is governed by MIT license that can be
 * found in the LICENSE.txt file.
 */

  .globl FMOD5_SoundGroup_GetVolume
  .p2align 4
  .type FMOD5_SoundGroup_GetVolume, %function
#ifndef IMPLIB_EXPORT_SHIMS
  .hidden FMOD5_SoundGroup_GetVolume
#endif
FMOD5_SoundGroup_GetVolume:
  .cfi_startproc
  .cfi_def_cfa_offset 4  // Return address
  // add $0, %rsp  Why GDB fails to step over call without this?!
  // x86 has no support for PC-relative addressing so code is not very efficient.
  // We also trash EAX here (it's call-clobbered in cdecl).
  call __implib.x86.get_pc_thunk.ax
  addl $_GLOBAL_OFFSET_TABLE_, %eax
  movl 948+_libfmod_so_tramp_table@GOTOFF(%eax), %eax
  cmp $0, %eax
  je 2f
1:
  jmp *%eax
2:
  mov $237, %eax
  call _libfmod_so_save_regs_and_resolve
  jmp FMOD5_SoundGroup_GetVolume
  .cfi_endproc
/*
 * Copyright 2019-2021 Yury Gribov
 *
 * The MIT License (MIT)
 *
 * Use of this source code is governed by MIT license that can be
 * found in the LICENSE.txt file.
 */

  .globl FMOD5_SoundGroup_Release
  .p2align 4
  .type FMOD5_SoundGroup_Release, %function
#ifndef IMPLIB_EXPORT_SHIMS
  .hidden FMOD5_SoundGroup_Release
#endif
FMOD5_SoundGroup_Release:
  .cfi_startproc
  .cfi_def_cfa_offset 4  // Return address
  // add $0, %rsp  Why GDB fails to step over call without this?!
  // x86 has no support for PC-relative addressing so code is not very efficient.
  // We also trash EAX here (it's call-clobbered in cdecl).
  call __implib.x86.get_pc_thunk.ax
  addl $_GLOBAL_OFFSET_TABLE_, %eax
  movl 952+_libfmod_so_tramp_table@GOTOFF(%eax), %eax
  cmp $0, %eax
  je 2f
1:
  jmp *%eax
2:
  mov $238, %eax
  call _libfmod_so_save_regs_and_resolve
  jmp FMOD5_SoundGroup_Release
  .cfi_endproc
/*
 * Copyright 2019-2021 Yury Gribov
 *
 * The MIT License (MIT)
 *
 * Use of this source code is governed by MIT license that can be
 * found in the LICENSE.txt file.
 */

  .globl FMOD5_SoundGroup_SetMaxAudible
  .p2align 4
  .type FMOD5_SoundGroup_SetMaxAudible, %function
#ifndef IMPLIB_EXPORT_SHIMS
  .hidden FMOD5_SoundGroup_SetMaxAudible
#endif
FMOD5_SoundGroup_SetMaxAudible:
  .cfi_startproc
  .cfi_def_cfa_offset 4  // Return address
  // add $0, %rsp  Why GDB fails to step over call without this?!
  // x86 has no support for PC-relative addressing so code is not very efficient.
  // We also trash EAX here (it's call-clobbered in cdecl).
  call __implib.x86.get_pc_thunk.ax
  addl $_GLOBAL_OFFSET_TABLE_, %eax
  movl 956+_libfmod_so_tramp_table@GOTOFF(%eax), %eax
  cmp $0, %eax
  je 2f
1:
  jmp *%eax
2:
  mov $239, %eax
  call _libfmod_so_save_regs_and_resolve
  jmp FMOD5_SoundGroup_SetMaxAudible
  .cfi_endproc
/*
 * Copyright 2019-2021 Yury Gribov
 *
 * The MIT License (MIT)
 *
 * Use of this source code is governed by MIT license that can be
 * found in the LICENSE.txt file.
 */

  .globl FMOD5_SoundGroup_SetMaxAudibleBehavior
  .p2align 4
  .type FMOD5_SoundGroup_SetMaxAudibleBehavior, %function
#ifndef IMPLIB_EXPORT_SHIMS
  .hidden FMOD5_SoundGroup_SetMaxAudibleBehavior
#endif
FMOD5_SoundGroup_SetMaxAudibleBehavior:
  .cfi_startproc
  .cfi_def_cfa_offset 4  // Return address
  // add $0, %rsp  Why GDB fails to step over call without this?!
  // x86 has no support for PC-relative addressing so code is not very efficient.
  // We also trash EAX here (it's call-clobbered in cdecl).
  call __implib.x86.get_pc_thunk.ax
  addl $_GLOBAL_OFFSET_TABLE_, %eax
  movl 960+_libfmod_so_tramp_table@GOTOFF(%eax), %eax
  cmp $0, %eax
  je 2f
1:
  jmp *%eax
2:
  mov $240, %eax
  call _libfmod_so_save_regs_and_resolve
  jmp FMOD5_SoundGroup_SetMaxAudibleBehavior
  .cfi_endproc
/*
 * Copyright 2019-2021 Yury Gribov
 *
 * The MIT License (MIT)
 *
 * Use of this source code is governed by MIT license that can be
 * found in the LICENSE.txt file.
 */

  .globl FMOD5_SoundGroup_SetMuteFadeSpeed
  .p2align 4
  .type FMOD5_SoundGroup_SetMuteFadeSpeed, %function
#ifndef IMPLIB_EXPORT_SHIMS
  .hidden FMOD5_SoundGroup_SetMuteFadeSpeed
#endif
FMOD5_SoundGroup_SetMuteFadeSpeed:
  .cfi_startproc
  .cfi_def_cfa_offset 4  // Return address
  // add $0, %rsp  Why GDB fails to step over call without this?!
  // x86 has no support for PC-relative addressing so code is not very efficient.
  // We also trash EAX here (it's call-clobbered in cdecl).
  call __implib.x86.get_pc_thunk.ax
  addl $_GLOBAL_OFFSET_TABLE_, %eax
  movl 964+_libfmod_so_tramp_table@GOTOFF(%eax), %eax
  cmp $0, %eax
  je 2f
1:
  jmp *%eax
2:
  mov $241, %eax
  call _libfmod_so_save_regs_and_resolve
  jmp FMOD5_SoundGroup_SetMuteFadeSpeed
  .cfi_endproc
/*
 * Copyright 2019-2021 Yury Gribov
 *
 * The MIT License (MIT)
 *
 * Use of this source code is governed by MIT license that can be
 * found in the LICENSE.txt file.
 */

  .globl FMOD5_SoundGroup_SetUserData
  .p2align 4
  .type FMOD5_SoundGroup_SetUserData, %function
#ifndef IMPLIB_EXPORT_SHIMS
  .hidden FMOD5_SoundGroup_SetUserData
#endif
FMOD5_SoundGroup_SetUserData:
  .cfi_startproc
  .cfi_def_cfa_offset 4  // Return address
  // add $0, %rsp  Why GDB fails to step over call without this?!
  // x86 has no support for PC-relative addressing so code is not very efficient.
  // We also trash EAX here (it's call-clobbered in cdecl).
  call __implib.x86.get_pc_thunk.ax
  addl $_GLOBAL_OFFSET_TABLE_, %eax
  movl 968+_libfmod_so_tramp_table@GOTOFF(%eax), %eax
  cmp $0, %eax
  je 2f
1:
  jmp *%eax
2:
  mov $242, %eax
  call _libfmod_so_save_regs_and_resolve
  jmp FMOD5_SoundGroup_SetUserData
  .cfi_endproc
/*
 * Copyright 2019-2021 Yury Gribov
 *
 * The MIT License (MIT)
 *
 * Use of this source code is governed by MIT license that can be
 * found in the LICENSE.txt file.
 */

  .globl FMOD5_SoundGroup_SetVolume
  .p2align 4
  .type FMOD5_SoundGroup_SetVolume, %function
#ifndef IMPLIB_EXPORT_SHIMS
  .hidden FMOD5_SoundGroup_SetVolume
#endif
FMOD5_SoundGroup_SetVolume:
  .cfi_startproc
  .cfi_def_cfa_offset 4  // Return address
  // add $0, %rsp  Why GDB fails to step over call without this?!
  // x86 has no support for PC-relative addressing so code is not very efficient.
  // We also trash EAX here (it's call-clobbered in cdecl).
  call __implib.x86.get_pc_thunk.ax
  addl $_GLOBAL_OFFSET_TABLE_, %eax
  movl 972+_libfmod_so_tramp_table@GOTOFF(%eax), %eax
  cmp $0, %eax
  je 2f
1:
  jmp *%eax
2:
  mov $243, %eax
  call _libfmod_so_save_regs_and_resolve
  jmp FMOD5_SoundGroup_SetVolume
  .cfi_endproc
/*
 * Copyright 2019-2021 Yury Gribov
 *
 * The MIT License (MIT)
 *
 * Use of this source code is governed by MIT license that can be
 * found in the LICENSE.txt file.
 */

  .globl FMOD5_SoundGroup_Stop
  .p2align 4
  .type FMOD5_SoundGroup_Stop, %function
#ifndef IMPLIB_EXPORT_SHIMS
  .hidden FMOD5_SoundGroup_Stop
#endif
FMOD5_SoundGroup_Stop:
  .cfi_startproc
  .cfi_def_cfa_offset 4  // Return address
  // add $0, %rsp  Why GDB fails to step over call without this?!
  // x86 has no support for PC-relative addressing so code is not very efficient.
  // We also trash EAX here (it's call-clobbered in cdecl).
  call __implib.x86.get_pc_thunk.ax
  addl $_GLOBAL_OFFSET_TABLE_, %eax
  movl 976+_libfmod_so_tramp_table@GOTOFF(%eax), %eax
  cmp $0, %eax
  je 2f
1:
  jmp *%eax
2:
  mov $244, %eax
  call _libfmod_so_save_regs_and_resolve
  jmp FMOD5_SoundGroup_Stop
  .cfi_endproc
/*
 * Copyright 2019-2021 Yury Gribov
 *
 * The MIT License (MIT)
 *
 * Use of this source code is governed by MIT license that can be
 * found in the LICENSE.txt file.
 */

  .globl FMOD5_Sound_AddSyncPoint
  .p2align 4
  .type FMOD5_Sound_AddSyncPoint, %function
#ifndef IMPLIB_EXPORT_SHIMS
  .hidden FMOD5_Sound_AddSyncPoint
#endif
FMOD5_Sound_AddSyncPoint:
  .cfi_startproc
  .cfi_def_cfa_offset 4  // Return address
  // add $0, %rsp  Why GDB fails to step over call without this?!
  // x86 has no support for PC-relative addressing so code is not very efficient.
  // We also trash EAX here (it's call-clobbered in cdecl).
  call __implib.x86.get_pc_thunk.ax
  addl $_GLOBAL_OFFSET_TABLE_, %eax
  movl 980+_libfmod_so_tramp_table@GOTOFF(%eax), %eax
  cmp $0, %eax
  je 2f
1:
  jmp *%eax
2:
  mov $245, %eax
  call _libfmod_so_save_regs_and_resolve
  jmp FMOD5_Sound_AddSyncPoint
  .cfi_endproc
/*
 * Copyright 2019-2021 Yury Gribov
 *
 * The MIT License (MIT)
 *
 * Use of this source code is governed by MIT license that can be
 * found in the LICENSE.txt file.
 */

  .globl FMOD5_Sound_DeleteSyncPoint
  .p2align 4
  .type FMOD5_Sound_DeleteSyncPoint, %function
#ifndef IMPLIB_EXPORT_SHIMS
  .hidden FMOD5_Sound_DeleteSyncPoint
#endif
FMOD5_Sound_DeleteSyncPoint:
  .cfi_startproc
  .cfi_def_cfa_offset 4  // Return address
  // add $0, %rsp  Why GDB fails to step over call without this?!
  // x86 has no support for PC-relative addressing so code is not very efficient.
  // We also trash EAX here (it's call-clobbered in cdecl).
  call __implib.x86.get_pc_thunk.ax
  addl $_GLOBAL_OFFSET_TABLE_, %eax
  movl 984+_libfmod_so_tramp_table@GOTOFF(%eax), %eax
  cmp $0, %eax
  je 2f
1:
  jmp *%eax
2:
  mov $246, %eax
  call _libfmod_so_save_regs_and_resolve
  jmp FMOD5_Sound_DeleteSyncPoint
  .cfi_endproc
/*
 * Copyright 2019-2021 Yury Gribov
 *
 * The MIT License (MIT)
 *
 * Use of this source code is governed by MIT license that can be
 * found in the LICENSE.txt file.
 */

  .globl FMOD5_Sound_Get3DConeSettings
  .p2align 4
  .type FMOD5_Sound_Get3DConeSettings, %function
#ifndef IMPLIB_EXPORT_SHIMS
  .hidden FMOD5_Sound_Get3DConeSettings
#endif
FMOD5_Sound_Get3DConeSettings:
  .cfi_startproc
  .cfi_def_cfa_offset 4  // Return address
  // add $0, %rsp  Why GDB fails to step over call without this?!
  // x86 has no support for PC-relative addressing so code is not very efficient.
  // We also trash EAX here (it's call-clobbered in cdecl).
  call __implib.x86.get_pc_thunk.ax
  addl $_GLOBAL_OFFSET_TABLE_, %eax
  movl 988+_libfmod_so_tramp_table@GOTOFF(%eax), %eax
  cmp $0, %eax
  je 2f
1:
  jmp *%eax
2:
  mov $247, %eax
  call _libfmod_so_save_regs_and_resolve
  jmp FMOD5_Sound_Get3DConeSettings
  .cfi_endproc
/*
 * Copyright 2019-2021 Yury Gribov
 *
 * The MIT License (MIT)
 *
 * Use of this source code is governed by MIT license that can be
 * found in the LICENSE.txt file.
 */

  .globl FMOD5_Sound_Get3DCustomRolloff
  .p2align 4
  .type FMOD5_Sound_Get3DCustomRolloff, %function
#ifndef IMPLIB_EXPORT_SHIMS
  .hidden FMOD5_Sound_Get3DCustomRolloff
#endif
FMOD5_Sound_Get3DCustomRolloff:
  .cfi_startproc
  .cfi_def_cfa_offset 4  // Return address
  // add $0, %rsp  Why GDB fails to step over call without this?!
  // x86 has no support for PC-relative addressing so code is not very efficient.
  // We also trash EAX here (it's call-clobbered in cdecl).
  call __implib.x86.get_pc_thunk.ax
  addl $_GLOBAL_OFFSET_TABLE_, %eax
  movl 992+_libfmod_so_tramp_table@GOTOFF(%eax), %eax
  cmp $0, %eax
  je 2f
1:
  jmp *%eax
2:
  mov $248, %eax
  call _libfmod_so_save_regs_and_resolve
  jmp FMOD5_Sound_Get3DCustomRolloff
  .cfi_endproc
/*
 * Copyright 2019-2021 Yury Gribov
 *
 * The MIT License (MIT)
 *
 * Use of this source code is governed by MIT license that can be
 * found in the LICENSE.txt file.
 */

  .globl FMOD5_Sound_Get3DMinMaxDistance
  .p2align 4
  .type FMOD5_Sound_Get3DMinMaxDistance, %function
#ifndef IMPLIB_EXPORT_SHIMS
  .hidden FMOD5_Sound_Get3DMinMaxDistance
#endif
FMOD5_Sound_Get3DMinMaxDistance:
  .cfi_startproc
  .cfi_def_cfa_offset 4  // Return address
  // add $0, %rsp  Why GDB fails to step over call without this?!
  // x86 has no support for PC-relative addressing so code is not very efficient.
  // We also trash EAX here (it's call-clobbered in cdecl).
  call __implib.x86.get_pc_thunk.ax
  addl $_GLOBAL_OFFSET_TABLE_, %eax
  movl 996+_libfmod_so_tramp_table@GOTOFF(%eax), %eax
  cmp $0, %eax
  je 2f
1:
  jmp *%eax
2:
  mov $249, %eax
  call _libfmod_so_save_regs_and_resolve
  jmp FMOD5_Sound_Get3DMinMaxDistance
  .cfi_endproc
/*
 * Copyright 2019-2021 Yury Gribov
 *
 * The MIT License (MIT)
 *
 * Use of this source code is governed by MIT license that can be
 * found in the LICENSE.txt file.
 */

  .globl FMOD5_Sound_GetDefaults
  .p2align 4
  .type FMOD5_Sound_GetDefaults, %function
#ifndef IMPLIB_EXPORT_SHIMS
  .hidden FMOD5_Sound_GetDefaults
#endif
FMOD5_Sound_GetDefaults:
  .cfi_startproc
  .cfi_def_cfa_offset 4  // Return address
  // add $0, %rsp  Why GDB fails to step over call without this?!
  // x86 has no support for PC-relative addressing so code is not very efficient.
  // We also trash EAX here (it's call-clobbered in cdecl).
  call __implib.x86.get_pc_thunk.ax
  addl $_GLOBAL_OFFSET_TABLE_, %eax
  movl 1000+_libfmod_so_tramp_table@GOTOFF(%eax), %eax
  cmp $0, %eax
  je 2f
1:
  jmp *%eax
2:
  mov $250, %eax
  call _libfmod_so_save_regs_and_resolve
  jmp FMOD5_Sound_GetDefaults
  .cfi_endproc
/*
 * Copyright 2019-2021 Yury Gribov
 *
 * The MIT License (MIT)
 *
 * Use of this source code is governed by MIT license that can be
 * found in the LICENSE.txt file.
 */

  .globl FMOD5_Sound_GetFormat
  .p2align 4
  .type FMOD5_Sound_GetFormat, %function
#ifndef IMPLIB_EXPORT_SHIMS
  .hidden FMOD5_Sound_GetFormat
#endif
FMOD5_Sound_GetFormat:
  .cfi_startproc
  .cfi_def_cfa_offset 4  // Return address
  // add $0, %rsp  Why GDB fails to step over call without this?!
  // x86 has no support for PC-relative addressing so code is not very efficient.
  // We also trash EAX here (it's call-clobbered in cdecl).
  call __implib.x86.get_pc_thunk.ax
  addl $_GLOBAL_OFFSET_TABLE_, %eax
  movl 1004+_libfmod_so_tramp_table@GOTOFF(%eax), %eax
  cmp $0, %eax
  je 2f
1:
  jmp *%eax
2:
  mov $251, %eax
  call _libfmod_so_save_regs_and_resolve
  jmp FMOD5_Sound_GetFormat
  .cfi_endproc
/*
 * Copyright 2019-2021 Yury Gribov
 *
 * The MIT License (MIT)
 *
 * Use of this source code is governed by MIT license that can be
 * found in the LICENSE.txt file.
 */

  .globl FMOD5_Sound_GetLength
  .p2align 4
  .type FMOD5_Sound_GetLength, %function
#ifndef IMPLIB_EXPORT_SHIMS
  .hidden FMOD5_Sound_GetLength
#endif
FMOD5_Sound_GetLength:
  .cfi_startproc
  .cfi_def_cfa_offset 4  // Return address
  // add $0, %rsp  Why GDB fails to step over call without this?!
  // x86 has no support for PC-relative addressing so code is not very efficient.
  // We also trash EAX here (it's call-clobbered in cdecl).
  call __implib.x86.get_pc_thunk.ax
  addl $_GLOBAL_OFFSET_TABLE_, %eax
  movl 1008+_libfmod_so_tramp_table@GOTOFF(%eax), %eax
  cmp $0, %eax
  je 2f
1:
  jmp *%eax
2:
  mov $252, %eax
  call _libfmod_so_save_regs_and_resolve
  jmp FMOD5_Sound_GetLength
  .cfi_endproc
/*
 * Copyright 2019-2021 Yury Gribov
 *
 * The MIT License (MIT)
 *
 * Use of this source code is governed by MIT license that can be
 * found in the LICENSE.txt file.
 */

  .globl FMOD5_Sound_GetLoopCount
  .p2align 4
  .type FMOD5_Sound_GetLoopCount, %function
#ifndef IMPLIB_EXPORT_SHIMS
  .hidden FMOD5_Sound_GetLoopCount
#endif
FMOD5_Sound_GetLoopCount:
  .cfi_startproc
  .cfi_def_cfa_offset 4  // Return address
  // add $0, %rsp  Why GDB fails to step over call without this?!
  // x86 has no support for PC-relative addressing so code is not very efficient.
  // We also trash EAX here (it's call-clobbered in cdecl).
  call __implib.x86.get_pc_thunk.ax
  addl $_GLOBAL_OFFSET_TABLE_, %eax
  movl 1012+_libfmod_so_tramp_table@GOTOFF(%eax), %eax
  cmp $0, %eax
  je 2f
1:
  jmp *%eax
2:
  mov $253, %eax
  call _libfmod_so_save_regs_and_resolve
  jmp FMOD5_Sound_GetLoopCount
  .cfi_endproc
/*
 * Copyright 2019-2021 Yury Gribov
 *
 * The MIT License (MIT)
 *
 * Use of this source code is governed by MIT license that can be
 * found in the LICENSE.txt file.
 */

  .globl FMOD5_Sound_GetLoopPoints
  .p2align 4
  .type FMOD5_Sound_GetLoopPoints, %function
#ifndef IMPLIB_EXPORT_SHIMS
  .hidden FMOD5_Sound_GetLoopPoints
#endif
FMOD5_Sound_GetLoopPoints:
  .cfi_startproc
  .cfi_def_cfa_offset 4  // Return address
  // add $0, %rsp  Why GDB fails to step over call without this?!
  // x86 has no support for PC-relative addressing so code is not very efficient.
  // We also trash EAX here (it's call-clobbered in cdecl).
  call __implib.x86.get_pc_thunk.ax
  addl $_GLOBAL_OFFSET_TABLE_, %eax
  movl 1016+_libfmod_so_tramp_table@GOTOFF(%eax), %eax
  cmp $0, %eax
  je 2f
1:
  jmp *%eax
2:
  mov $254, %eax
  call _libfmod_so_save_regs_and_resolve
  jmp FMOD5_Sound_GetLoopPoints
  .cfi_endproc
/*
 * Copyright 2019-2021 Yury Gribov
 *
 * The MIT License (MIT)
 *
 * Use of this source code is governed by MIT license that can be
 * found in the LICENSE.txt file.
 */

  .globl FMOD5_Sound_GetMode
  .p2align 4
  .type FMOD5_Sound_GetMode, %function
#ifndef IMPLIB_EXPORT_SHIMS
  .hidden FMOD5_Sound_GetMode
#endif
FMOD5_Sound_GetMode:
  .cfi_startproc
  .cfi_def_cfa_offset 4  // Return address
  // add $0, %rsp  Why GDB fails to step over call without this?!
  // x86 has no support for PC-relative addressing so code is not very efficient.
  // We also trash EAX here (it's call-clobbered in cdecl).
  call __implib.x86.get_pc_thunk.ax
  addl $_GLOBAL_OFFSET_TABLE_, %eax
  movl 1020+_libfmod_so_tramp_table@GOTOFF(%eax), %eax
  cmp $0, %eax
  je 2f
1:
  jmp *%eax
2:
  mov $255, %eax
  call _libfmod_so_save_regs_and_resolve
  jmp FMOD5_Sound_GetMode
  .cfi_endproc
/*
 * Copyright 2019-2021 Yury Gribov
 *
 * The MIT License (MIT)
 *
 * Use of this source code is governed by MIT license that can be
 * found in the LICENSE.txt file.
 */

  .globl FMOD5_Sound_GetMusicChannelVolume
  .p2align 4
  .type FMOD5_Sound_GetMusicChannelVolume, %function
#ifndef IMPLIB_EXPORT_SHIMS
  .hidden FMOD5_Sound_GetMusicChannelVolume
#endif
FMOD5_Sound_GetMusicChannelVolume:
  .cfi_startproc
  .cfi_def_cfa_offset 4  // Return address
  // add $0, %rsp  Why GDB fails to step over call without this?!
  // x86 has no support for PC-relative addressing so code is not very efficient.
  // We also trash EAX here (it's call-clobbered in cdecl).
  call __implib.x86.get_pc_thunk.ax
  addl $_GLOBAL_OFFSET_TABLE_, %eax
  movl 1024+_libfmod_so_tramp_table@GOTOFF(%eax), %eax
  cmp $0, %eax
  je 2f
1:
  jmp *%eax
2:
  mov $256, %eax
  call _libfmod_so_save_regs_and_resolve
  jmp FMOD5_Sound_GetMusicChannelVolume
  .cfi_endproc
/*
 * Copyright 2019-2021 Yury Gribov
 *
 * The MIT License (MIT)
 *
 * Use of this source code is governed by MIT license that can be
 * found in the LICENSE.txt file.
 */

  .globl FMOD5_Sound_GetMusicNumChannels
  .p2align 4
  .type FMOD5_Sound_GetMusicNumChannels, %function
#ifndef IMPLIB_EXPORT_SHIMS
  .hidden FMOD5_Sound_GetMusicNumChannels
#endif
FMOD5_Sound_GetMusicNumChannels:
  .cfi_startproc
  .cfi_def_cfa_offset 4  // Return address
  // add $0, %rsp  Why GDB fails to step over call without this?!
  // x86 has no support for PC-relative addressing so code is not very efficient.
  // We also trash EAX here (it's call-clobbered in cdecl).
  call __implib.x86.get_pc_thunk.ax
  addl $_GLOBAL_OFFSET_TABLE_, %eax
  movl 1028+_libfmod_so_tramp_table@GOTOFF(%eax), %eax
  cmp $0, %eax
  je 2f
1:
  jmp *%eax
2:
  mov $257, %eax
  call _libfmod_so_save_regs_and_resolve
  jmp FMOD5_Sound_GetMusicNumChannels
  .cfi_endproc
/*
 * Copyright 2019-2021 Yury Gribov
 *
 * The MIT License (MIT)
 *
 * Use of this source code is governed by MIT license that can be
 * found in the LICENSE.txt file.
 */

  .globl FMOD5_Sound_GetMusicSpeed
  .p2align 4
  .type FMOD5_Sound_GetMusicSpeed, %function
#ifndef IMPLIB_EXPORT_SHIMS
  .hidden FMOD5_Sound_GetMusicSpeed
#endif
FMOD5_Sound_GetMusicSpeed:
  .cfi_startproc
  .cfi_def_cfa_offset 4  // Return address
  // add $0, %rsp  Why GDB fails to step over call without this?!
  // x86 has no support for PC-relative addressing so code is not very efficient.
  // We also trash EAX here (it's call-clobbered in cdecl).
  call __implib.x86.get_pc_thunk.ax
  addl $_GLOBAL_OFFSET_TABLE_, %eax
  movl 1032+_libfmod_so_tramp_table@GOTOFF(%eax), %eax
  cmp $0, %eax
  je 2f
1:
  jmp *%eax
2:
  mov $258, %eax
  call _libfmod_so_save_regs_and_resolve
  jmp FMOD5_Sound_GetMusicSpeed
  .cfi_endproc
/*
 * Copyright 2019-2021 Yury Gribov
 *
 * The MIT License (MIT)
 *
 * Use of this source code is governed by MIT license that can be
 * found in the LICENSE.txt file.
 */

  .globl FMOD5_Sound_GetName
  .p2align 4
  .type FMOD5_Sound_GetName, %function
#ifndef IMPLIB_EXPORT_SHIMS
  .hidden FMOD5_Sound_GetName
#endif
FMOD5_Sound_GetName:
  .cfi_startproc
  .cfi_def_cfa_offset 4  // Return address
  // add $0, %rsp  Why GDB fails to step over call without this?!
  // x86 has no support for PC-relative addressing so code is not very efficient.
  // We also trash EAX here (it's call-clobbered in cdecl).
  call __implib.x86.get_pc_thunk.ax
  addl $_GLOBAL_OFFSET_TABLE_, %eax
  movl 1036+_libfmod_so_tramp_table@GOTOFF(%eax), %eax
  cmp $0, %eax
  je 2f
1:
  jmp *%eax
2:
  mov $259, %eax
  call _libfmod_so_save_regs_and_resolve
  jmp FMOD5_Sound_GetName
  .cfi_endproc
/*
 * Copyright 2019-2021 Yury Gribov
 *
 * The MIT License (MIT)
 *
 * Use of this source code is governed by MIT license that can be
 * found in the LICENSE.txt file.
 */

  .globl FMOD5_Sound_GetNumSubSounds
  .p2align 4
  .type FMOD5_Sound_GetNumSubSounds, %function
#ifndef IMPLIB_EXPORT_SHIMS
  .hidden FMOD5_Sound_GetNumSubSounds
#endif
FMOD5_Sound_GetNumSubSounds:
  .cfi_startproc
  .cfi_def_cfa_offset 4  // Return address
  // add $0, %rsp  Why GDB fails to step over call without this?!
  // x86 has no support for PC-relative addressing so code is not very efficient.
  // We also trash EAX here (it's call-clobbered in cdecl).
  call __implib.x86.get_pc_thunk.ax
  addl $_GLOBAL_OFFSET_TABLE_, %eax
  movl 1040+_libfmod_so_tramp_table@GOTOFF(%eax), %eax
  cmp $0, %eax
  je 2f
1:
  jmp *%eax
2:
  mov $260, %eax
  call _libfmod_so_save_regs_and_resolve
  jmp FMOD5_Sound_GetNumSubSounds
  .cfi_endproc
/*
 * Copyright 2019-2021 Yury Gribov
 *
 * The MIT License (MIT)
 *
 * Use of this source code is governed by MIT license that can be
 * found in the LICENSE.txt file.
 */

  .globl FMOD5_Sound_GetNumSyncPoints
  .p2align 4
  .type FMOD5_Sound_GetNumSyncPoints, %function
#ifndef IMPLIB_EXPORT_SHIMS
  .hidden FMOD5_Sound_GetNumSyncPoints
#endif
FMOD5_Sound_GetNumSyncPoints:
  .cfi_startproc
  .cfi_def_cfa_offset 4  // Return address
  // add $0, %rsp  Why GDB fails to step over call without this?!
  // x86 has no support for PC-relative addressing so code is not very efficient.
  // We also trash EAX here (it's call-clobbered in cdecl).
  call __implib.x86.get_pc_thunk.ax
  addl $_GLOBAL_OFFSET_TABLE_, %eax
  movl 1044+_libfmod_so_tramp_table@GOTOFF(%eax), %eax
  cmp $0, %eax
  je 2f
1:
  jmp *%eax
2:
  mov $261, %eax
  call _libfmod_so_save_regs_and_resolve
  jmp FMOD5_Sound_GetNumSyncPoints
  .cfi_endproc
/*
 * Copyright 2019-2021 Yury Gribov
 *
 * The MIT License (MIT)
 *
 * Use of this source code is governed by MIT license that can be
 * found in the LICENSE.txt file.
 */

  .globl FMOD5_Sound_GetNumTags
  .p2align 4
  .type FMOD5_Sound_GetNumTags, %function
#ifndef IMPLIB_EXPORT_SHIMS
  .hidden FMOD5_Sound_GetNumTags
#endif
FMOD5_Sound_GetNumTags:
  .cfi_startproc
  .cfi_def_cfa_offset 4  // Return address
  // add $0, %rsp  Why GDB fails to step over call without this?!
  // x86 has no support for PC-relative addressing so code is not very efficient.
  // We also trash EAX here (it's call-clobbered in cdecl).
  call __implib.x86.get_pc_thunk.ax
  addl $_GLOBAL_OFFSET_TABLE_, %eax
  movl 1048+_libfmod_so_tramp_table@GOTOFF(%eax), %eax
  cmp $0, %eax
  je 2f
1:
  jmp *%eax
2:
  mov $262, %eax
  call _libfmod_so_save_regs_and_resolve
  jmp FMOD5_Sound_GetNumTags
  .cfi_endproc
/*
 * Copyright 2019-2021 Yury Gribov
 *
 * The MIT License (MIT)
 *
 * Use of this source code is governed by MIT license that can be
 * found in the LICENSE.txt file.
 */

  .globl FMOD5_Sound_GetOpenState
  .p2align 4
  .type FMOD5_Sound_GetOpenState, %function
#ifndef IMPLIB_EXPORT_SHIMS
  .hidden FMOD5_Sound_GetOpenState
#endif
FMOD5_Sound_GetOpenState:
  .cfi_startproc
  .cfi_def_cfa_offset 4  // Return address
  // add $0, %rsp  Why GDB fails to step over call without this?!
  // x86 has no support for PC-relative addressing so code is not very efficient.
  // We also trash EAX here (it's call-clobbered in cdecl).
  call __implib.x86.get_pc_thunk.ax
  addl $_GLOBAL_OFFSET_TABLE_, %eax
  movl 1052+_libfmod_so_tramp_table@GOTOFF(%eax), %eax
  cmp $0, %eax
  je 2f
1:
  jmp *%eax
2:
  mov $263, %eax
  call _libfmod_so_save_regs_and_resolve
  jmp FMOD5_Sound_GetOpenState
  .cfi_endproc
/*
 * Copyright 2019-2021 Yury Gribov
 *
 * The MIT License (MIT)
 *
 * Use of this source code is governed by MIT license that can be
 * found in the LICENSE.txt file.
 */

  .globl FMOD5_Sound_GetSoundGroup
  .p2align 4
  .type FMOD5_Sound_GetSoundGroup, %function
#ifndef IMPLIB_EXPORT_SHIMS
  .hidden FMOD5_Sound_GetSoundGroup
#endif
FMOD5_Sound_GetSoundGroup:
  .cfi_startproc
  .cfi_def_cfa_offset 4  // Return address
  // add $0, %rsp  Why GDB fails to step over call without this?!
  // x86 has no support for PC-relative addressing so code is not very efficient.
  // We also trash EAX here (it's call-clobbered in cdecl).
  call __implib.x86.get_pc_thunk.ax
  addl $_GLOBAL_OFFSET_TABLE_, %eax
  movl 1056+_libfmod_so_tramp_table@GOTOFF(%eax), %eax
  cmp $0, %eax
  je 2f
1:
  jmp *%eax
2:
  mov $264, %eax
  call _libfmod_so_save_regs_and_resolve
  jmp FMOD5_Sound_GetSoundGroup
  .cfi_endproc
/*
 * Copyright 2019-2021 Yury Gribov
 *
 * The MIT License (MIT)
 *
 * Use of this source code is governed by MIT license that can be
 * found in the LICENSE.txt file.
 */

  .globl FMOD5_Sound_GetSubSound
  .p2align 4
  .type FMOD5_Sound_GetSubSound, %function
#ifndef IMPLIB_EXPORT_SHIMS
  .hidden FMOD5_Sound_GetSubSound
#endif
FMOD5_Sound_GetSubSound:
  .cfi_startproc
  .cfi_def_cfa_offset 4  // Return address
  // add $0, %rsp  Why GDB fails to step over call without this?!
  // x86 has no support for PC-relative addressing so code is not very efficient.
  // We also trash EAX here (it's call-clobbered in cdecl).
  call __implib.x86.get_pc_thunk.ax
  addl $_GLOBAL_OFFSET_TABLE_, %eax
  movl 1060+_libfmod_so_tramp_table@GOTOFF(%eax), %eax
  cmp $0, %eax
  je 2f
1:
  jmp *%eax
2:
  mov $265, %eax
  call _libfmod_so_save_regs_and_resolve
  jmp FMOD5_Sound_GetSubSound
  .cfi_endproc
/*
 * Copyright 2019-2021 Yury Gribov
 *
 * The MIT License (MIT)
 *
 * Use of this source code is governed by MIT license that can be
 * found in the LICENSE.txt file.
 */

  .globl FMOD5_Sound_GetSubSoundParent
  .p2align 4
  .type FMOD5_Sound_GetSubSoundParent, %function
#ifndef IMPLIB_EXPORT_SHIMS
  .hidden FMOD5_Sound_GetSubSoundParent
#endif
FMOD5_Sound_GetSubSoundParent:
  .cfi_startproc
  .cfi_def_cfa_offset 4  // Return address
  // add $0, %rsp  Why GDB fails to step over call without this?!
  // x86 has no support for PC-relative addressing so code is not very efficient.
  // We also trash EAX here (it's call-clobbered in cdecl).
  call __implib.x86.get_pc_thunk.ax
  addl $_GLOBAL_OFFSET_TABLE_, %eax
  movl 1064+_libfmod_so_tramp_table@GOTOFF(%eax), %eax
  cmp $0, %eax
  je 2f
1:
  jmp *%eax
2:
  mov $266, %eax
  call _libfmod_so_save_regs_and_resolve
  jmp FMOD5_Sound_GetSubSoundParent
  .cfi_endproc
/*
 * Copyright 2019-2021 Yury Gribov
 *
 * The MIT License (MIT)
 *
 * Use of this source code is governed by MIT license that can be
 * found in the LICENSE.txt file.
 */

  .globl FMOD5_Sound_GetSyncPoint
  .p2align 4
  .type FMOD5_Sound_GetSyncPoint, %function
#ifndef IMPLIB_EXPORT_SHIMS
  .hidden FMOD5_Sound_GetSyncPoint
#endif
FMOD5_Sound_GetSyncPoint:
  .cfi_startproc
  .cfi_def_cfa_offset 4  // Return address
  // add $0, %rsp  Why GDB fails to step over call without this?!
  // x86 has no support for PC-relative addressing so code is not very efficient.
  // We also trash EAX here (it's call-clobbered in cdecl).
  call __implib.x86.get_pc_thunk.ax
  addl $_GLOBAL_OFFSET_TABLE_, %eax
  movl 1068+_libfmod_so_tramp_table@GOTOFF(%eax), %eax
  cmp $0, %eax
  je 2f
1:
  jmp *%eax
2:
  mov $267, %eax
  call _libfmod_so_save_regs_and_resolve
  jmp FMOD5_Sound_GetSyncPoint
  .cfi_endproc
/*
 * Copyright 2019-2021 Yury Gribov
 *
 * The MIT License (MIT)
 *
 * Use of this source code is governed by MIT license that can be
 * found in the LICENSE.txt file.
 */

  .globl FMOD5_Sound_GetSyncPointInfo
  .p2align 4
  .type FMOD5_Sound_GetSyncPointInfo, %function
#ifndef IMPLIB_EXPORT_SHIMS
  .hidden FMOD5_Sound_GetSyncPointInfo
#endif
FMOD5_Sound_GetSyncPointInfo:
  .cfi_startproc
  .cfi_def_cfa_offset 4  // Return address
  // add $0, %rsp  Why GDB fails to step over call without this?!
  // x86 has no support for PC-relative addressing so code is not very efficient.
  // We also trash EAX here (it's call-clobbered in cdecl).
  call __implib.x86.get_pc_thunk.ax
  addl $_GLOBAL_OFFSET_TABLE_, %eax
  movl 1072+_libfmod_so_tramp_table@GOTOFF(%eax), %eax
  cmp $0, %eax
  je 2f
1:
  jmp *%eax
2:
  mov $268, %eax
  call _libfmod_so_save_regs_and_resolve
  jmp FMOD5_Sound_GetSyncPointInfo
  .cfi_endproc
/*
 * Copyright 2019-2021 Yury Gribov
 *
 * The MIT License (MIT)
 *
 * Use of this source code is governed by MIT license that can be
 * found in the LICENSE.txt file.
 */

  .globl FMOD5_Sound_GetSystemObject
  .p2align 4
  .type FMOD5_Sound_GetSystemObject, %function
#ifndef IMPLIB_EXPORT_SHIMS
  .hidden FMOD5_Sound_GetSystemObject
#endif
FMOD5_Sound_GetSystemObject:
  .cfi_startproc
  .cfi_def_cfa_offset 4  // Return address
  // add $0, %rsp  Why GDB fails to step over call without this?!
  // x86 has no support for PC-relative addressing so code is not very efficient.
  // We also trash EAX here (it's call-clobbered in cdecl).
  call __implib.x86.get_pc_thunk.ax
  addl $_GLOBAL_OFFSET_TABLE_, %eax
  movl 1076+_libfmod_so_tramp_table@GOTOFF(%eax), %eax
  cmp $0, %eax
  je 2f
1:
  jmp *%eax
2:
  mov $269, %eax
  call _libfmod_so_save_regs_and_resolve
  jmp FMOD5_Sound_GetSystemObject
  .cfi_endproc
/*
 * Copyright 2019-2021 Yury Gribov
 *
 * The MIT License (MIT)
 *
 * Use of this source code is governed by MIT license that can be
 * found in the LICENSE.txt file.
 */

  .globl FMOD5_Sound_GetTag
  .p2align 4
  .type FMOD5_Sound_GetTag, %function
#ifndef IMPLIB_EXPORT_SHIMS
  .hidden FMOD5_Sound_GetTag
#endif
FMOD5_Sound_GetTag:
  .cfi_startproc
  .cfi_def_cfa_offset 4  // Return address
  // add $0, %rsp  Why GDB fails to step over call without this?!
  // x86 has no support for PC-relative addressing so code is not very efficient.
  // We also trash EAX here (it's call-clobbered in cdecl).
  call __implib.x86.get_pc_thunk.ax
  addl $_GLOBAL_OFFSET_TABLE_, %eax
  movl 1080+_libfmod_so_tramp_table@GOTOFF(%eax), %eax
